	.cpu cortex-m7
	.eabi_attribute 28, 1
	.eabi_attribute 20, 1
	.eabi_attribute 21, 1
	.eabi_attribute 23, 3
	.eabi_attribute 24, 1
	.eabi_attribute 25, 1
	.eabi_attribute 26, 1
	.eabi_attribute 30, 6
	.eabi_attribute 34, 1
	.eabi_attribute 18, 4
	.file	"ff.c"
	.text
.Ltext0:
	.section	.bss.FatFs,"aw",%nobits
	.align	2
	.type	FatFs, %object
	.size	FatFs, 20
FatFs:
	.space	20
	.section	.bss.Fsid,"aw",%nobits
	.align	1
	.type	Fsid, %object
	.size	Fsid, 2
Fsid:
	.space	2
	.section	.bss.CurrVol,"aw",%nobits
	.type	CurrVol, %object
	.size	CurrVol, 1
CurrVol:
	.space	1
	.section	.rodata.ExCvt,"a"
	.align	2
	.type	ExCvt, %object
	.size	ExCvt, 128
ExCvt:
	.ascii	"CUEAAAACEEEIIIAAE\222\222OOOUUYOUO\234O\236\237AIOU"
	.ascii	"\245\245\246\247\250\251\252\253\254\255\256\257\260"
	.ascii	"\261\262\263\264AAA\270\271\272\273\274\275\276\277"
	.ascii	"\300\301\302\303\304\305AA\310\311\312\313\314\315\316"
	.ascii	"\317\321\321EEEIIII\331\332\333\334\335I\337O\341OO"
	.ascii	"OO\346\350\350UUUYY\356\357\360\361\362\363\364\365"
	.ascii	"\366\367\370\371\372\373\374\375\376\377"
	.section	.text.mem_cpy,"ax",%progbits
	.align	1
	.syntax unified
	.thumb
	.thumb_func
	.fpu fpv5-d16
	.type	mem_cpy, %function
mem_cpy:
.LFB0:
	.file 1 "/home/tommy/Documents/CrossWorks Projects/Executable_1/Device/Middleware/fatfs/src/ff.c"
	.loc 1 486 53
	@ args = 0, pretend = 0, frame = 24
	@ frame_needed = 0, uses_anonymous_args = 0
	@ link register save eliminated.
	sub	sp, sp, #24
.LCFI0:
	str	r0, [sp, #12]
	str	r1, [sp, #8]
	str	r2, [sp, #4]
	.loc 1 487 11
	ldr	r3, [sp, #12]
	str	r3, [sp, #20]
	.loc 1 488 17
	ldr	r3, [sp, #8]
	str	r3, [sp, #16]
	.loc 1 497 11
	b	.L2
.L3:
	.loc 1 498 18
	ldr	r2, [sp, #16]
	adds	r3, r2, #1
	str	r3, [sp, #16]
	.loc 1 498 11
	ldr	r3, [sp, #20]
	adds	r1, r3, #1
	str	r1, [sp, #20]
	.loc 1 498 16
	ldrb	r2, [r2]	@ zero_extendqisi2
	.loc 1 498 14
	strb	r2, [r3]
.L2:
	.loc 1 497 15
	ldr	r3, [sp, #4]
	subs	r2, r3, #1
	str	r2, [sp, #4]
	.loc 1 497 11
	cmp	r3, #0
	bne	.L3
	.loc 1 499 1
	nop
	nop
	add	sp, sp, #24
.LCFI1:
	@ sp needed
	bx	lr
.LFE0:
	.size	mem_cpy, .-mem_cpy
	.section	.text.mem_set,"ax",%progbits
	.align	1
	.syntax unified
	.thumb
	.thumb_func
	.fpu fpv5-d16
	.type	mem_set, %function
mem_set:
.LFB1:
	.loc 1 503 45
	@ args = 0, pretend = 0, frame = 24
	@ frame_needed = 0, uses_anonymous_args = 0
	@ link register save eliminated.
	sub	sp, sp, #24
.LCFI2:
	str	r0, [sp, #12]
	str	r1, [sp, #8]
	str	r2, [sp, #4]
	.loc 1 504 11
	ldr	r3, [sp, #12]
	str	r3, [sp, #20]
	.loc 1 506 11
	b	.L5
.L6:
	.loc 1 507 11
	ldr	r3, [sp, #20]
	adds	r2, r3, #1
	str	r2, [sp, #20]
	.loc 1 507 16
	ldr	r2, [sp, #8]
	uxtb	r2, r2
	.loc 1 507 14
	strb	r2, [r3]
.L5:
	.loc 1 506 15
	ldr	r3, [sp, #4]
	subs	r2, r3, #1
	str	r2, [sp, #4]
	.loc 1 506 11
	cmp	r3, #0
	bne	.L6
	.loc 1 508 1
	nop
	nop
	add	sp, sp, #24
.LCFI3:
	@ sp needed
	bx	lr
.LFE1:
	.size	mem_set, .-mem_set
	.section	.text.mem_cmp,"ax",%progbits
	.align	1
	.syntax unified
	.thumb
	.thumb_func
	.fpu fpv5-d16
	.type	mem_cmp, %function
mem_cmp:
.LFB2:
	.loc 1 512 58
	@ args = 0, pretend = 0, frame = 32
	@ frame_needed = 0, uses_anonymous_args = 0
	@ link register save eliminated.
	sub	sp, sp, #32
.LCFI4:
	str	r0, [sp, #12]
	str	r1, [sp, #8]
	str	r2, [sp, #4]
	.loc 1 513 17
	ldr	r3, [sp, #12]
	str	r3, [sp, #28]
	.loc 1 513 41
	ldr	r3, [sp, #8]
	str	r3, [sp, #24]
	.loc 1 514 9
	movs	r3, #0
	str	r3, [sp, #20]
	.loc 1 516 11
	nop
.L9:
	.loc 1 516 15 discriminator 2
	ldr	r3, [sp, #4]
	subs	r2, r3, #1
	str	r2, [sp, #4]
	.loc 1 516 11 discriminator 2
	cmp	r3, #0
	beq	.L8
	.loc 1 516 28 discriminator 1
	ldr	r3, [sp, #28]
	adds	r2, r3, #1
	str	r2, [sp, #28]
	.loc 1 516 26 discriminator 1
	ldrb	r3, [r3]	@ zero_extendqisi2
	mov	r1, r3
	.loc 1 516 35 discriminator 1
	ldr	r3, [sp, #24]
	adds	r2, r3, #1
	str	r2, [sp, #24]
	.loc 1 516 33 discriminator 1
	ldrb	r3, [r3]	@ zero_extendqisi2
	.loc 1 516 24 discriminator 1
	subs	r3, r1, r3
	str	r3, [sp, #20]
	.loc 1 516 18 discriminator 1
	ldr	r3, [sp, #20]
	cmp	r3, #0
	beq	.L9
.L8:
	.loc 1 517 12
	ldr	r3, [sp, #20]
	.loc 1 518 1
	mov	r0, r3
	add	sp, sp, #32
.LCFI5:
	@ sp needed
	bx	lr
.LFE2:
	.size	mem_cmp, .-mem_cmp
	.section	.text.chk_chr,"ax",%progbits
	.align	1
	.syntax unified
	.thumb
	.thumb_func
	.fpu fpv5-d16
	.type	chk_chr, %function
chk_chr:
.LFB3:
	.loc 1 522 40
	@ args = 0, pretend = 0, frame = 8
	@ frame_needed = 0, uses_anonymous_args = 0
	@ link register save eliminated.
	sub	sp, sp, #8
.LCFI6:
	str	r0, [sp, #4]
	str	r1, [sp]
	.loc 1 523 11
	b	.L12
.L14:
	.loc 1 523 36 discriminator 3
	ldr	r3, [sp, #4]
	adds	r3, r3, #1
	str	r3, [sp, #4]
.L12:
	.loc 1 523 12 discriminator 1
	ldr	r3, [sp, #4]
	ldrb	r3, [r3]	@ zero_extendqisi2
	.loc 1 523 11 discriminator 1
	cmp	r3, #0
	beq	.L13
	.loc 1 523 20 discriminator 2
	ldr	r3, [sp, #4]
	ldrb	r3, [r3]	@ zero_extendqisi2
	mov	r2, r3
	.loc 1 523 17 discriminator 2
	ldr	r3, [sp]
	cmp	r3, r2
	bne	.L14
.L13:
	.loc 1 524 12
	ldr	r3, [sp, #4]
	ldrb	r3, [r3]	@ zero_extendqisi2
	.loc 1 525 1
	mov	r0, r3
	add	sp, sp, #8
.LCFI7:
	@ sp needed
	bx	lr
.LFE3:
	.size	chk_chr, .-chk_chr
	.section	.text.sync_window,"ax",%progbits
	.align	1
	.syntax unified
	.thumb
	.thumb_func
	.fpu fpv5-d16
	.type	sync_window, %function
sync_window:
.LFB4:
	.loc 1 666 1
	@ args = 0, pretend = 0, frame = 24
	@ frame_needed = 0, uses_anonymous_args = 0
	push	{lr}
.LCFI8:
	sub	sp, sp, #28
.LCFI9:
	str	r0, [sp, #4]
	.loc 1 669 13
	movs	r3, #0
	strb	r3, [sp, #15]
	.loc 1 671 11
	ldr	r3, [sp, #4]
	ldrb	r3, [r3, #4]	@ zero_extendqisi2
	.loc 1 671 8
	cmp	r3, #0
	beq	.L17
	.loc 1 672 15
	ldr	r3, [sp, #4]
	ldr	r3, [r3, #48]
	str	r3, [sp, #20]
	.loc 1 673 13
	ldr	r3, [sp, #4]
	ldrb	r0, [r3, #1]	@ zero_extendqisi2
	.loc 1 673 35
	ldr	r3, [sp, #4]
	add	r1, r3, #52
	.loc 1 673 13
	movs	r3, #1
	ldr	r2, [sp, #20]
	bl	disk_write
	mov	r3, r0
	.loc 1 673 12
	cmp	r3, #0
	beq	.L18
	.loc 1 674 17
	movs	r3, #1
	strb	r3, [sp, #15]
	b	.L17
.L18:
	.loc 1 676 23
	ldr	r3, [sp, #4]
	movs	r2, #0
	strb	r2, [r3, #4]
	.loc 1 677 27
	ldr	r3, [sp, #4]
	ldr	r3, [r3, #36]
	.loc 1 677 23
	ldr	r2, [sp, #20]
	subs	r2, r2, r3
	.loc 1 677 41
	ldr	r3, [sp, #4]
	ldr	r3, [r3, #28]
	.loc 1 677 16
	cmp	r2, r3
	bcs	.L17
	.loc 1 678 29
	ldr	r3, [sp, #4]
	ldrb	r3, [r3, #3]	@ zero_extendqisi2
	.loc 1 678 25
	str	r3, [sp, #16]
	.loc 1 678 17
	b	.L19
.L20:
	.loc 1 679 32 discriminator 3
	ldr	r3, [sp, #4]
	ldr	r3, [r3, #28]
	.loc 1 679 27 discriminator 3
	ldr	r2, [sp, #20]
	add	r3, r3, r2
	str	r3, [sp, #20]
	.loc 1 680 21 discriminator 3
	ldr	r3, [sp, #4]
	ldrb	r0, [r3, #1]	@ zero_extendqisi2
	.loc 1 680 43 discriminator 3
	ldr	r3, [sp, #4]
	add	r1, r3, #52
	.loc 1 680 21 discriminator 3
	movs	r3, #1
	ldr	r2, [sp, #20]
	bl	disk_write
	.loc 1 678 50 discriminator 3
	ldr	r3, [sp, #16]
	subs	r3, r3, #1
	str	r3, [sp, #16]
.L19:
	.loc 1 678 17 discriminator 1
	ldr	r3, [sp, #16]
	cmp	r3, #1
	bhi	.L20
.L17:
	.loc 1 685 12
	ldrb	r3, [sp, #15]	@ zero_extendqisi2
	.loc 1 686 1
	mov	r0, r3
	add	sp, sp, #28
.LCFI10:
	@ sp needed
	ldr	pc, [sp], #4
.LFE4:
	.size	sync_window, .-sync_window
	.section	.text.move_window,"ax",%progbits
	.align	1
	.syntax unified
	.thumb
	.thumb_func
	.fpu fpv5-d16
	.type	move_window, %function
move_window:
.LFB5:
	.loc 1 694 1
	@ args = 0, pretend = 0, frame = 16
	@ frame_needed = 0, uses_anonymous_args = 0
	push	{lr}
.LCFI11:
	sub	sp, sp, #20
.LCFI12:
	str	r0, [sp, #4]
	str	r1, [sp]
	.loc 1 695 13
	movs	r3, #0
	strb	r3, [sp, #15]
	.loc 1 697 21
	ldr	r3, [sp, #4]
	ldr	r3, [r3, #48]
	.loc 1 697 8
	ldr	r2, [sp]
	cmp	r2, r3
	beq	.L23
	.loc 1 699 15
	ldr	r0, [sp, #4]
	bl	sync_window
	mov	r3, r0
	strb	r3, [sp, #15]
	.loc 1 701 12
	ldrb	r3, [sp, #15]	@ zero_extendqisi2
	cmp	r3, #0
	bne	.L23
	.loc 1 702 17
	ldr	r3, [sp, #4]
	ldrb	r0, [r3, #1]	@ zero_extendqisi2
	.loc 1 702 38
	ldr	r3, [sp, #4]
	add	r1, r3, #52
	.loc 1 702 17
	movs	r3, #1
	ldr	r2, [sp]
	bl	disk_read
	mov	r3, r0
	.loc 1 702 16
	cmp	r3, #0
	beq	.L24
	.loc 1 703 24
	mov	r3, #-1
	str	r3, [sp]
	.loc 1 704 21
	movs	r3, #1
	strb	r3, [sp, #15]
.L24:
	.loc 1 706 25
	ldr	r3, [sp, #4]
	ldr	r2, [sp]
	str	r2, [r3, #48]
.L23:
	.loc 1 709 12
	ldrb	r3, [sp, #15]	@ zero_extendqisi2
	.loc 1 710 1
	mov	r0, r3
	add	sp, sp, #20
.LCFI13:
	@ sp needed
	ldr	pc, [sp], #4
.LFE5:
	.size	move_window, .-move_window
	.section	.text.sync_fs,"ax",%progbits
	.align	1
	.syntax unified
	.thumb
	.thumb_func
	.fpu fpv5-d16
	.type	sync_fs, %function
sync_fs:
.LFB6:
	.loc 1 720 1
	@ args = 0, pretend = 0, frame = 16
	@ frame_needed = 0, uses_anonymous_args = 0
	push	{lr}
.LCFI14:
	sub	sp, sp, #20
.LCFI15:
	str	r0, [sp, #4]
	.loc 1 723 11
	ldr	r0, [sp, #4]
	bl	sync_window
	mov	r3, r0
	strb	r3, [sp, #15]
	.loc 1 724 8
	ldrb	r3, [sp, #15]	@ zero_extendqisi2
	cmp	r3, #0
	bne	.L27
	.loc 1 726 15
	ldr	r3, [sp, #4]
	ldrb	r3, [r3]	@ zero_extendqisi2
	.loc 1 726 12
	cmp	r3, #3
	bne	.L28
	.loc 1 726 42 discriminator 1
	ldr	r3, [sp, #4]
	ldrb	r3, [r3, #5]	@ zero_extendqisi2
	.loc 1 726 37 discriminator 1
	cmp	r3, #1
	bne	.L28
	.loc 1 728 23
	ldr	r3, [sp, #4]
	adds	r3, r3, #52
	.loc 1 728 13
	mov	r2, #512
	movs	r1, #0
	mov	r0, r3
	bl	mem_set
	.loc 1 729 13
	ldr	r3, [sp, #4]
	movs	r2, #85
	strb	r2, [r3, #562]
	ldr	r3, [sp, #4]
	movs	r2, #170
	strb	r2, [r3, #563]
	.loc 1 730 13
	ldr	r3, [sp, #4]
	movs	r2, #82
	strb	r2, [r3, #52]
	ldr	r3, [sp, #4]
	movs	r2, #82
	strb	r2, [r3, #53]
	ldr	r3, [sp, #4]
	movs	r2, #97
	strb	r2, [r3, #54]
	ldr	r3, [sp, #4]
	movs	r2, #65
	strb	r2, [r3, #55]
	.loc 1 731 13
	ldr	r3, [sp, #4]
	movs	r2, #114
	strb	r2, [r3, #536]
	ldr	r3, [sp, #4]
	movs	r2, #114
	strb	r2, [r3, #537]
	ldr	r3, [sp, #4]
	movs	r2, #65
	strb	r2, [r3, #538]
	ldr	r3, [sp, #4]
	movs	r2, #97
	strb	r2, [r3, #539]
	.loc 1 732 13
	ldr	r3, [sp, #4]
	ldr	r3, [r3, #16]
	uxtb	r2, r3
	ldr	r3, [sp, #4]
	strb	r2, [r3, #540]
	ldr	r3, [sp, #4]
	ldr	r3, [r3, #16]
	uxth	r3, r3
	lsrs	r3, r3, #8
	uxth	r3, r3
	uxtb	r2, r3
	ldr	r3, [sp, #4]
	strb	r2, [r3, #541]
	ldr	r3, [sp, #4]
	ldr	r3, [r3, #16]
	lsrs	r3, r3, #16
	uxtb	r2, r3
	ldr	r3, [sp, #4]
	strb	r2, [r3, #542]
	ldr	r3, [sp, #4]
	ldr	r3, [r3, #16]
	lsrs	r3, r3, #24
	uxtb	r2, r3
	ldr	r3, [sp, #4]
	strb	r2, [r3, #543]
	.loc 1 733 13
	ldr	r3, [sp, #4]
	ldr	r3, [r3, #12]
	uxtb	r2, r3
	ldr	r3, [sp, #4]
	strb	r2, [r3, #544]
	ldr	r3, [sp, #4]
	ldr	r3, [r3, #12]
	uxth	r3, r3
	lsrs	r3, r3, #8
	uxth	r3, r3
	uxtb	r2, r3
	ldr	r3, [sp, #4]
	strb	r2, [r3, #545]
	ldr	r3, [sp, #4]
	ldr	r3, [r3, #12]
	lsrs	r3, r3, #16
	uxtb	r2, r3
	ldr	r3, [sp, #4]
	strb	r2, [r3, #546]
	ldr	r3, [sp, #4]
	ldr	r3, [r3, #12]
	lsrs	r3, r3, #24
	uxtb	r2, r3
	ldr	r3, [sp, #4]
	strb	r2, [r3, #547]
	.loc 1 735 29
	ldr	r3, [sp, #4]
	ldr	r3, [r3, #32]
	.loc 1 735 39
	adds	r2, r3, #1
	.loc 1 735 25
	ldr	r3, [sp, #4]
	str	r2, [r3, #48]
	.loc 1 736 13
	ldr	r3, [sp, #4]
	ldrb	r0, [r3, #1]	@ zero_extendqisi2
	.loc 1 736 35
	ldr	r3, [sp, #4]
	add	r1, r3, #52
	.loc 1 736 44
	ldr	r3, [sp, #4]
	ldr	r2, [r3, #48]
	.loc 1 736 13
	movs	r3, #1
	bl	disk_write
	.loc 1 737 26
	ldr	r3, [sp, #4]
	movs	r2, #0
	strb	r2, [r3, #5]
.L28:
	.loc 1 740 13
	ldr	r3, [sp, #4]
	ldrb	r3, [r3, #1]	@ zero_extendqisi2
	movs	r2, #0
	movs	r1, #0
	mov	r0, r3
	bl	disk_ioctl
	mov	r3, r0
	.loc 1 740 12
	cmp	r3, #0
	beq	.L27
	.loc 1 741 17
	movs	r3, #1
	strb	r3, [sp, #15]
.L27:
	.loc 1 744 12
	ldrb	r3, [sp, #15]	@ zero_extendqisi2
	.loc 1 745 1
	mov	r0, r3
	add	sp, sp, #20
.LCFI16:
	@ sp needed
	ldr	pc, [sp], #4
.LFE6:
	.size	sync_fs, .-sync_fs
	.section	.text.clust2sect,"ax",%progbits
	.align	1
	.global	clust2sect
	.syntax unified
	.thumb
	.thumb_func
	.fpu fpv5-d16
	.type	clust2sect, %function
clust2sect:
.LFB7:
	.loc 1 757 1
	@ args = 0, pretend = 0, frame = 8
	@ frame_needed = 0, uses_anonymous_args = 0
	@ link register save eliminated.
	sub	sp, sp, #8
.LCFI17:
	str	r0, [sp, #4]
	str	r1, [sp]
	.loc 1 758 10
	ldr	r3, [sp]
	subs	r3, r3, #2
	str	r3, [sp]
	.loc 1 759 19
	ldr	r3, [sp, #4]
	ldr	r3, [r3, #24]
	.loc 1 759 30
	subs	r3, r3, #2
	.loc 1 759 8
	ldr	r2, [sp]
	cmp	r2, r3
	bcc	.L31
	.loc 1 759 42 discriminator 1
	movs	r3, #0
	b	.L32
.L31:
	.loc 1 760 21
	ldr	r3, [sp, #4]
	ldrb	r3, [r3, #2]	@ zero_extendqisi2
	mov	r2, r3
	.loc 1 760 17
	ldr	r3, [sp]
	mul	r2, r3, r2
	.loc 1 760 33
	ldr	r3, [sp, #4]
	ldr	r3, [r3, #44]
	.loc 1 760 29
	add	r3, r3, r2
.L32:
	.loc 1 761 1
	mov	r0, r3
	add	sp, sp, #8
.LCFI18:
	@ sp needed
	bx	lr
.LFE7:
	.size	clust2sect, .-clust2sect
	.section	.text.get_fat,"ax",%progbits
	.align	1
	.global	get_fat
	.syntax unified
	.thumb
	.thumb_func
	.fpu fpv5-d16
	.type	get_fat, %function
get_fat:
.LFB8:
	.loc 1 772 1
	@ args = 0, pretend = 0, frame = 24
	@ frame_needed = 0, uses_anonymous_args = 0
	push	{lr}
.LCFI19:
	sub	sp, sp, #28
.LCFI20:
	str	r0, [sp, #4]
	str	r1, [sp]
	.loc 1 777 8
	ldr	r3, [sp]
	cmp	r3, #1
	bls	.L34
	.loc 1 777 31 discriminator 1
	ldr	r3, [sp, #4]
	ldr	r3, [r3, #24]
	.loc 1 777 18 discriminator 1
	ldr	r2, [sp]
	cmp	r2, r3
	bcc	.L35
.L34:
	.loc 1 778 13
	movs	r3, #1
	str	r3, [sp, #20]
	b	.L36
.L35:
	.loc 1 781 13
	mov	r3, #-1
	str	r3, [sp, #20]
	.loc 1 783 19
	ldr	r3, [sp, #4]
	ldrb	r3, [r3]	@ zero_extendqisi2
	.loc 1 783 9
	cmp	r3, #3
	beq	.L37
	cmp	r3, #3
	bgt	.L38
	cmp	r3, #1
	beq	.L39
	cmp	r3, #2
	beq	.L40
	b	.L38
.L39:
	.loc 1 785 16
	ldr	r3, [sp]
	str	r3, [sp, #12]
	.loc 1 785 39
	ldr	r3, [sp, #12]
	lsrs	r3, r3, #1
	.loc 1 785 33
	ldr	r2, [sp, #12]
	add	r3, r3, r2
	str	r3, [sp, #12]
	.loc 1 786 35
	ldr	r3, [sp, #4]
	ldr	r2, [r3, #36]
	.loc 1 786 51
	ldr	r3, [sp, #12]
	lsrs	r3, r3, #9
	.loc 1 786 17
	add	r3, r3, r2
	mov	r1, r3
	ldr	r0, [sp, #4]
	bl	move_window
	mov	r3, r0
	.loc 1 786 16
	cmp	r3, #0
	bne	.L48
	.loc 1 787 28
	ldr	r3, [sp, #12]
	adds	r2, r3, #1
	str	r2, [sp, #12]
	.loc 1 787 31
	ubfx	r3, r3, #0, #9
	.loc 1 787 25
	ldr	r2, [sp, #4]
	add	r3, r3, r2
	ldrb	r3, [r3, #52]	@ zero_extendqisi2
	.loc 1 787 16
	str	r3, [sp, #8]
	.loc 1 788 35
	ldr	r3, [sp, #4]
	ldr	r2, [r3, #36]
	.loc 1 788 51
	ldr	r3, [sp, #12]
	lsrs	r3, r3, #9
	.loc 1 788 17
	add	r3, r3, r2
	mov	r1, r3
	ldr	r0, [sp, #4]
	bl	move_window
	mov	r3, r0
	.loc 1 788 16
	cmp	r3, #0
	bne	.L49
	.loc 1 789 30
	ldr	r3, [sp, #12]
	ubfx	r3, r3, #0, #9
	.loc 1 789 26
	ldr	r2, [sp, #4]
	add	r3, r3, r2
	ldrb	r3, [r3, #52]	@ zero_extendqisi2
	.loc 1 789 40
	lsls	r3, r3, #8
	mov	r2, r3
	.loc 1 789 16
	ldr	r3, [sp, #8]
	orrs	r3, r3, r2
	str	r3, [sp, #8]
	.loc 1 790 24
	ldr	r3, [sp]
	and	r3, r3, #1
	.loc 1 790 38
	cmp	r3, #0
	beq	.L43
	.loc 1 790 38 is_stmt 0 discriminator 1
	ldr	r3, [sp, #8]
	lsrs	r3, r3, #4
	b	.L44
.L43:
	.loc 1 790 38 discriminator 2
	ldr	r3, [sp, #8]
	ubfx	r3, r3, #0, #12
.L44:
	.loc 1 790 17 is_stmt 1 discriminator 4
	str	r3, [sp, #20]
	.loc 1 791 13 discriminator 4
	b	.L36
.L40:
	.loc 1 794 35
	ldr	r3, [sp, #4]
	ldr	r2, [r3, #36]
	.loc 1 794 53
	ldr	r3, [sp]
	lsrs	r3, r3, #8
	.loc 1 794 17
	add	r3, r3, r2
	mov	r1, r3
	ldr	r0, [sp, #4]
	bl	move_window
	mov	r3, r0
	.loc 1 794 16
	cmp	r3, #0
	bne	.L50
	.loc 1 795 31
	ldr	r3, [sp]
	lsls	r3, r3, #1
	.loc 1 795 35
	and	r3, r3, #510
	.loc 1 795 15
	adds	r3, r3, #48
	ldr	r2, [sp, #4]
	add	r3, r3, r2
	adds	r3, r3, #4
	str	r3, [sp, #16]
	.loc 1 796 19
	ldr	r3, [sp, #16]
	adds	r3, r3, #1
	ldrb	r3, [r3]	@ zero_extendqisi2
	lsls	r3, r3, #8
	sxth	r2, r3
	ldr	r3, [sp, #16]
	ldrb	r3, [r3]	@ zero_extendqisi2
	sxth	r3, r3
	orrs	r3, r3, r2
	sxth	r3, r3
	uxth	r3, r3
	.loc 1 796 17
	str	r3, [sp, #20]
	.loc 1 797 13
	b	.L36
.L37:
	.loc 1 800 35
	ldr	r3, [sp, #4]
	ldr	r2, [r3, #36]
	.loc 1 800 53
	ldr	r3, [sp]
	lsrs	r3, r3, #7
	.loc 1 800 17
	add	r3, r3, r2
	mov	r1, r3
	ldr	r0, [sp, #4]
	bl	move_window
	mov	r3, r0
	.loc 1 800 16
	cmp	r3, #0
	bne	.L51
	.loc 1 801 31
	ldr	r3, [sp]
	lsls	r3, r3, #2
	.loc 1 801 35
	and	r3, r3, #508
	.loc 1 801 15
	adds	r3, r3, #48
	ldr	r2, [sp, #4]
	add	r3, r3, r2
	adds	r3, r3, #4
	str	r3, [sp, #16]
	.loc 1 802 19
	ldr	r3, [sp, #16]
	adds	r3, r3, #3
	ldrb	r3, [r3]	@ zero_extendqisi2
	lsls	r2, r3, #24
	ldr	r3, [sp, #16]
	adds	r3, r3, #2
	ldrb	r3, [r3]	@ zero_extendqisi2
	lsls	r3, r3, #16
	orrs	r3, r3, r2
	ldr	r2, [sp, #16]
	adds	r2, r2, #1
	ldrb	r2, [r2]	@ zero_extendqisi2
	lsls	r2, r2, #8
	orrs	r3, r3, r2
	ldr	r2, [sp, #16]
	ldrb	r2, [r2]	@ zero_extendqisi2
	orrs	r3, r3, r2
	.loc 1 802 17
	bic	r3, r3, #-268435456
	str	r3, [sp, #20]
	.loc 1 803 13
	b	.L36
.L38:
	.loc 1 806 17
	movs	r3, #1
	str	r3, [sp, #20]
	b	.L36
.L48:
	.loc 1 786 13
	nop
	b	.L36
.L49:
	.loc 1 788 13
	nop
	b	.L36
.L50:
	.loc 1 794 13
	nop
	b	.L36
.L51:
	.loc 1 800 13
	nop
.L36:
	.loc 1 810 12
	ldr	r3, [sp, #20]
	.loc 1 811 1
	mov	r0, r3
	add	sp, sp, #28
.LCFI21:
	@ sp needed
	ldr	pc, [sp], #4
.LFE8:
	.size	get_fat, .-get_fat
	.section	.text.put_fat,"ax",%progbits
	.align	1
	.global	put_fat
	.syntax unified
	.thumb
	.thumb_func
	.fpu fpv5-d16
	.type	put_fat, %function
put_fat:
.LFB9:
	.loc 1 824 1
	@ args = 0, pretend = 0, frame = 32
	@ frame_needed = 0, uses_anonymous_args = 0
	push	{lr}
.LCFI22:
	sub	sp, sp, #36
.LCFI23:
	str	r0, [sp, #12]
	str	r1, [sp, #8]
	str	r2, [sp, #4]
	.loc 1 829 8
	ldr	r3, [sp, #8]
	cmp	r3, #1
	bls	.L53
	.loc 1 829 31 discriminator 1
	ldr	r3, [sp, #12]
	ldr	r3, [r3, #24]
	.loc 1 829 18 discriminator 1
	ldr	r2, [sp, #8]
	cmp	r2, r3
	bcc	.L54
.L53:
	.loc 1 830 13
	movs	r3, #2
	strb	r3, [sp, #31]
	b	.L55
.L54:
	.loc 1 833 19
	ldr	r3, [sp, #12]
	ldrb	r3, [r3]	@ zero_extendqisi2
	.loc 1 833 9
	cmp	r3, #3
	beq	.L56
	cmp	r3, #3
	bgt	.L57
	cmp	r3, #1
	beq	.L58
	cmp	r3, #2
	beq	.L59
	b	.L57
.L58:
	.loc 1 835 16
	ldr	r3, [sp, #8]
	str	r3, [sp, #20]
	.loc 1 835 39
	ldr	r3, [sp, #20]
	lsrs	r3, r3, #1
	.loc 1 835 33
	ldr	r2, [sp, #20]
	add	r3, r3, r2
	str	r3, [sp, #20]
	.loc 1 836 37
	ldr	r3, [sp, #12]
	ldr	r2, [r3, #36]
	.loc 1 836 53
	ldr	r3, [sp, #20]
	lsrs	r3, r3, #9
	.loc 1 836 19
	add	r3, r3, r2
	mov	r1, r3
	ldr	r0, [sp, #12]
	bl	move_window
	mov	r3, r0
	strb	r3, [sp, #31]
	.loc 1 837 16
	ldrb	r3, [sp, #31]	@ zero_extendqisi2
	cmp	r3, #0
	bne	.L69
	.loc 1 838 28
	ldr	r3, [sp, #20]
	adds	r2, r3, #1
	str	r2, [sp, #20]
	.loc 1 838 31
	ubfx	r3, r3, #0, #9
	.loc 1 838 15
	adds	r3, r3, #48
	ldr	r2, [sp, #12]
	add	r3, r3, r2
	adds	r3, r3, #4
	str	r3, [sp, #24]
	.loc 1 839 24
	ldr	r3, [sp, #8]
	and	r3, r3, #1
	.loc 1 839 16
	cmp	r3, #0
	beq	.L61
	.loc 1 839 33 discriminator 1
	ldr	r3, [sp, #24]
	ldrb	r3, [r3]	@ zero_extendqisi2
	sxtb	r3, r3
	.loc 1 839 36 discriminator 1
	and	r3, r3, #15
	sxtb	r2, r3
	.loc 1 839 47 discriminator 1
	ldr	r3, [sp, #4]
	uxtb	r3, r3
	.loc 1 839 57 discriminator 1
	lsls	r3, r3, #4
	.loc 1 839 44 discriminator 1
	sxtb	r3, r3
	orrs	r3, r3, r2
	sxtb	r3, r3
	.loc 1 839 16 discriminator 1
	uxtb	r3, r3
	b	.L62
.L61:
	.loc 1 839 16 is_stmt 0 discriminator 2
	ldr	r3, [sp, #4]
	uxtb	r3, r3
.L62:
	.loc 1 839 16 discriminator 4
	ldr	r2, [sp, #24]
	strb	r3, [r2]
	.loc 1 840 23 is_stmt 1 discriminator 4
	ldr	r3, [sp, #12]
	movs	r2, #1
	strb	r2, [r3, #4]
	.loc 1 841 37 discriminator 4
	ldr	r3, [sp, #12]
	ldr	r2, [r3, #36]
	.loc 1 841 53 discriminator 4
	ldr	r3, [sp, #20]
	lsrs	r3, r3, #9
	.loc 1 841 19 discriminator 4
	add	r3, r3, r2
	mov	r1, r3
	ldr	r0, [sp, #12]
	bl	move_window
	mov	r3, r0
	strb	r3, [sp, #31]
	.loc 1 842 16 discriminator 4
	ldrb	r3, [sp, #31]	@ zero_extendqisi2
	cmp	r3, #0
	bne	.L70
	.loc 1 843 29
	ldr	r3, [sp, #20]
	ubfx	r3, r3, #0, #9
	.loc 1 843 15
	adds	r3, r3, #48
	ldr	r2, [sp, #12]
	add	r3, r3, r2
	adds	r3, r3, #4
	str	r3, [sp, #24]
	.loc 1 844 24
	ldr	r3, [sp, #8]
	and	r3, r3, #1
	.loc 1 844 16
	cmp	r3, #0
	beq	.L64
	.loc 1 844 42 discriminator 1
	ldr	r3, [sp, #4]
	lsrs	r3, r3, #4
	.loc 1 844 16 discriminator 1
	uxtb	r3, r3
	b	.L65
.L64:
	.loc 1 844 52 discriminator 2
	ldr	r3, [sp, #24]
	ldrb	r3, [r3]	@ zero_extendqisi2
	sxtb	r3, r3
	.loc 1 844 55 discriminator 2
	bic	r3, r3, #15
	sxtb	r2, r3
	.loc 1 844 77 discriminator 2
	ldr	r3, [sp, #4]
	lsrs	r3, r3, #8
	.loc 1 844 66 discriminator 2
	sxtb	r3, r3
	.loc 1 844 83 discriminator 2
	and	r3, r3, #15
	sxtb	r3, r3
	.loc 1 844 63 discriminator 2
	orrs	r3, r3, r2
	sxtb	r3, r3
	.loc 1 844 16 discriminator 2
	uxtb	r3, r3
.L65:
	.loc 1 844 16 is_stmt 0 discriminator 4
	ldr	r2, [sp, #24]
	strb	r3, [r2]
	.loc 1 845 23 is_stmt 1 discriminator 4
	ldr	r3, [sp, #12]
	movs	r2, #1
	strb	r2, [r3, #4]
	.loc 1 846 13 discriminator 4
	b	.L55
.L59:
	.loc 1 849 37
	ldr	r3, [sp, #12]
	ldr	r2, [r3, #36]
	.loc 1 849 55
	ldr	r3, [sp, #8]
	lsrs	r3, r3, #8
	.loc 1 849 19
	add	r3, r3, r2
	mov	r1, r3
	ldr	r0, [sp, #12]
	bl	move_window
	mov	r3, r0
	strb	r3, [sp, #31]
	.loc 1 850 16
	ldrb	r3, [sp, #31]	@ zero_extendqisi2
	cmp	r3, #0
	bne	.L71
	.loc 1 851 31
	ldr	r3, [sp, #8]
	lsls	r3, r3, #1
	.loc 1 851 35
	and	r3, r3, #510
	.loc 1 851 15
	adds	r3, r3, #48
	ldr	r2, [sp, #12]
	add	r3, r3, r2
	adds	r3, r3, #4
	str	r3, [sp, #24]
	.loc 1 852 13
	ldr	r3, [sp, #4]
	uxtb	r2, r3
	ldr	r3, [sp, #24]
	strb	r2, [r3]
	ldr	r3, [sp, #4]
	uxth	r3, r3
	lsrs	r3, r3, #8
	uxth	r2, r3
	ldr	r3, [sp, #24]
	adds	r3, r3, #1
	uxtb	r2, r2
	strb	r2, [r3]
	.loc 1 853 23
	ldr	r3, [sp, #12]
	movs	r2, #1
	strb	r2, [r3, #4]
	.loc 1 854 13
	b	.L55
.L56:
	.loc 1 857 37
	ldr	r3, [sp, #12]
	ldr	r2, [r3, #36]
	.loc 1 857 55
	ldr	r3, [sp, #8]
	lsrs	r3, r3, #7
	.loc 1 857 19
	add	r3, r3, r2
	mov	r1, r3
	ldr	r0, [sp, #12]
	bl	move_window
	mov	r3, r0
	strb	r3, [sp, #31]
	.loc 1 858 16
	ldrb	r3, [sp, #31]	@ zero_extendqisi2
	cmp	r3, #0
	bne	.L72
	.loc 1 859 31
	ldr	r3, [sp, #8]
	lsls	r3, r3, #2
	.loc 1 859 35
	and	r3, r3, #508
	.loc 1 859 15
	adds	r3, r3, #48
	ldr	r2, [sp, #12]
	add	r3, r3, r2
	adds	r3, r3, #4
	str	r3, [sp, #24]
	.loc 1 860 20
	ldr	r3, [sp, #24]
	adds	r3, r3, #3
	ldrb	r3, [r3]	@ zero_extendqisi2
	lsls	r2, r3, #24
	ldr	r3, [sp, #24]
	adds	r3, r3, #2
	ldrb	r3, [r3]	@ zero_extendqisi2
	lsls	r3, r3, #16
	orrs	r3, r3, r2
	ldr	r2, [sp, #24]
	adds	r2, r2, #1
	ldrb	r2, [r2]	@ zero_extendqisi2
	lsls	r2, r2, #8
	orrs	r3, r3, r2
	ldr	r2, [sp, #24]
	ldrb	r2, [r2]	@ zero_extendqisi2
	orrs	r3, r3, r2
	.loc 1 860 32
	and	r3, r3, #-268435456
	.loc 1 860 17
	ldr	r2, [sp, #4]
	orrs	r3, r3, r2
	str	r3, [sp, #4]
	.loc 1 861 13
	ldr	r3, [sp, #4]
	uxtb	r2, r3
	ldr	r3, [sp, #24]
	strb	r2, [r3]
	ldr	r3, [sp, #4]
	uxth	r3, r3
	lsrs	r3, r3, #8
	uxth	r2, r3
	ldr	r3, [sp, #24]
	adds	r3, r3, #1
	uxtb	r2, r2
	strb	r2, [r3]
	ldr	r3, [sp, #4]
	lsrs	r2, r3, #16
	ldr	r3, [sp, #24]
	adds	r3, r3, #2
	uxtb	r2, r2
	strb	r2, [r3]
	ldr	r3, [sp, #4]
	lsrs	r2, r3, #24
	ldr	r3, [sp, #24]
	adds	r3, r3, #3
	uxtb	r2, r2
	strb	r2, [r3]
	.loc 1 862 23
	ldr	r3, [sp, #12]
	movs	r2, #1
	strb	r2, [r3, #4]
	.loc 1 863 13
	b	.L55
.L57:
	.loc 1 866 17
	movs	r3, #2
	strb	r3, [sp, #31]
	b	.L55
.L69:
	.loc 1 837 13
	nop
	b	.L55
.L70:
	.loc 1 842 13
	nop
	b	.L55
.L71:
	.loc 1 850 13
	nop
	b	.L55
.L72:
	.loc 1 858 13
	nop
.L55:
	.loc 1 870 12
	ldrb	r3, [sp, #31]	@ zero_extendqisi2
	.loc 1 871 1
	mov	r0, r3
	add	sp, sp, #36
.LCFI24:
	@ sp needed
	ldr	pc, [sp], #4
.LFE9:
	.size	put_fat, .-put_fat
	.section	.text.remove_chain,"ax",%progbits
	.align	1
	.syntax unified
	.thumb
	.thumb_func
	.fpu fpv5-d16
	.type	remove_chain, %function
remove_chain:
.LFB10:
	.loc 1 883 1
	@ args = 0, pretend = 0, frame = 16
	@ frame_needed = 0, uses_anonymous_args = 0
	push	{lr}
.LCFI25:
	sub	sp, sp, #20
.LCFI26:
	str	r0, [sp, #4]
	str	r1, [sp]
	.loc 1 890 8
	ldr	r3, [sp]
	cmp	r3, #1
	bls	.L74
	.loc 1 890 31 discriminator 1
	ldr	r3, [sp, #4]
	ldr	r3, [r3, #24]
	.loc 1 890 18 discriminator 1
	ldr	r2, [sp]
	cmp	r2, r3
	bcc	.L75
.L74:
	.loc 1 891 13
	movs	r3, #2
	strb	r3, [sp, #15]
	b	.L76
.L75:
	.loc 1 894 13
	movs	r3, #0
	strb	r3, [sp, #15]
	.loc 1 895 15
	b	.L77
.L83:
	.loc 1 896 19
	ldr	r1, [sp]
	ldr	r0, [sp, #4]
	bl	get_fat
	str	r0, [sp, #8]
	.loc 1 897 16
	ldr	r3, [sp, #8]
	cmp	r3, #0
	beq	.L85
	.loc 1 898 16
	ldr	r3, [sp, #8]
	cmp	r3, #1
	bne	.L79
	.loc 1 898 33 discriminator 1
	movs	r3, #2
	strb	r3, [sp, #15]
	.loc 1 898 13 discriminator 1
	b	.L76
.L79:
	.loc 1 899 16
	ldr	r3, [sp, #8]
	cmp	r3, #-1
	bne	.L80
	.loc 1 899 42 discriminator 1
	movs	r3, #1
	strb	r3, [sp, #15]
	.loc 1 899 13 discriminator 1
	b	.L76
.L80:
	.loc 1 900 19
	movs	r2, #0
	ldr	r1, [sp]
	ldr	r0, [sp, #4]
	bl	put_fat
	mov	r3, r0
	strb	r3, [sp, #15]
	.loc 1 901 16
	ldrb	r3, [sp, #15]	@ zero_extendqisi2
	cmp	r3, #0
	bne	.L86
	.loc 1 902 19
	ldr	r3, [sp, #4]
	ldr	r3, [r3, #16]
	.loc 1 902 16
	cmp	r3, #-1
	beq	.L82
	.loc 1 903 19
	ldr	r3, [sp, #4]
	ldr	r3, [r3, #16]
	.loc 1 903 31
	adds	r2, r3, #1
	ldr	r3, [sp, #4]
	str	r2, [r3, #16]
	.loc 1 904 30
	ldr	r3, [sp, #4]
	ldrb	r3, [r3, #5]	@ zero_extendqisi2
	orr	r3, r3, #1
	uxtb	r2, r3
	ldr	r3, [sp, #4]
	strb	r2, [r3, #5]
.L82:
	.loc 1 916 18
	ldr	r3, [sp, #8]
	str	r3, [sp]
.L77:
	.loc 1 895 25
	ldr	r3, [sp, #4]
	ldr	r3, [r3, #24]
	.loc 1 895 15
	ldr	r2, [sp]
	cmp	r2, r3
	bcc	.L83
	b	.L76
.L85:
	.loc 1 897 13
	nop
	b	.L76
.L86:
	.loc 1 901 13
	nop
.L76:
	.loc 1 920 12
	ldrb	r3, [sp, #15]	@ zero_extendqisi2
	.loc 1 921 1
	mov	r0, r3
	add	sp, sp, #20
.LCFI27:
	@ sp needed
	ldr	pc, [sp], #4
.LFE10:
	.size	remove_chain, .-remove_chain
	.section	.text.create_chain,"ax",%progbits
	.align	1
	.syntax unified
	.thumb
	.thumb_func
	.fpu fpv5-d16
	.type	create_chain, %function
create_chain:
.LFB11:
	.loc 1 933 1
	@ args = 0, pretend = 0, frame = 24
	@ frame_needed = 0, uses_anonymous_args = 0
	push	{lr}
.LCFI28:
	sub	sp, sp, #28
.LCFI29:
	str	r0, [sp, #4]
	str	r1, [sp]
	.loc 1 937 8
	ldr	r3, [sp]
	cmp	r3, #0
	bne	.L88
	.loc 1 938 13
	ldr	r3, [sp, #4]
	ldr	r3, [r3, #12]
	str	r3, [sp, #16]
	.loc 1 939 12
	ldr	r3, [sp, #16]
	cmp	r3, #0
	beq	.L89
	.loc 1 939 30 discriminator 2
	ldr	r3, [sp, #4]
	ldr	r3, [r3, #24]
	.loc 1 939 18 discriminator 2
	ldr	r2, [sp, #16]
	cmp	r2, r3
	bcc	.L90
.L89:
	.loc 1 939 46 discriminator 3
	movs	r3, #1
	str	r3, [sp, #16]
	b	.L90
.L88:
	.loc 1 942 14
	ldr	r1, [sp]
	ldr	r0, [sp, #4]
	bl	get_fat
	str	r0, [sp, #8]
	.loc 1 943 12
	ldr	r3, [sp, #8]
	cmp	r3, #1
	bhi	.L91
	.loc 1 943 28 discriminator 1
	movs	r3, #1
	b	.L92
.L91:
	.loc 1 944 12
	ldr	r3, [sp, #8]
	cmp	r3, #-1
	bne	.L93
	.loc 1 944 38 discriminator 1
	ldr	r3, [sp, #8]
	b	.L92
.L93:
	.loc 1 945 20
	ldr	r3, [sp, #4]
	ldr	r3, [r3, #24]
	.loc 1 945 12
	ldr	r2, [sp, #8]
	cmp	r2, r3
	bcs	.L94
	.loc 1 945 39 discriminator 1
	ldr	r3, [sp, #8]
	b	.L92
.L94:
	.loc 1 946 13
	ldr	r3, [sp]
	str	r3, [sp, #16]
.L90:
	.loc 1 949 9
	ldr	r3, [sp, #16]
	str	r3, [sp, #20]
.L101:
	.loc 1 951 12
	ldr	r3, [sp, #20]
	adds	r3, r3, #1
	str	r3, [sp, #20]
	.loc 1 952 22
	ldr	r3, [sp, #4]
	ldr	r3, [r3, #24]
	.loc 1 952 12
	ldr	r2, [sp, #20]
	cmp	r2, r3
	bcc	.L95
	.loc 1 953 17
	movs	r3, #2
	str	r3, [sp, #20]
	.loc 1 954 16
	ldr	r2, [sp, #20]
	ldr	r3, [sp, #16]
	cmp	r2, r3
	bls	.L95
	.loc 1 954 35 discriminator 1
	movs	r3, #0
	b	.L92
.L95:
	.loc 1 956 14
	ldr	r1, [sp, #20]
	ldr	r0, [sp, #4]
	bl	get_fat
	str	r0, [sp, #8]
	.loc 1 957 12
	ldr	r3, [sp, #8]
	cmp	r3, #0
	beq	.L108
	.loc 1 958 12
	ldr	r3, [sp, #8]
	cmp	r3, #-1
	beq	.L98
	.loc 1 958 30 discriminator 1
	ldr	r3, [sp, #8]
	cmp	r3, #1
	bne	.L99
.L98:
	.loc 1 959 20
	ldr	r3, [sp, #8]
	b	.L92
.L99:
	.loc 1 960 12
	ldr	r2, [sp, #20]
	ldr	r3, [sp, #16]
	cmp	r2, r3
	bne	.L101
	.loc 1 960 32 discriminator 1
	movs	r3, #0
	b	.L92
.L108:
	.loc 1 957 9
	nop
	.loc 1 963 11
	mvn	r2, #-268435456
	ldr	r1, [sp, #20]
	ldr	r0, [sp, #4]
	bl	put_fat
	mov	r3, r0
	strb	r3, [sp, #15]
	.loc 1 964 8
	ldrb	r3, [sp, #15]	@ zero_extendqisi2
	cmp	r3, #0
	bne	.L102
	.loc 1 964 22 discriminator 1
	ldr	r3, [sp]
	cmp	r3, #0
	beq	.L102
	.loc 1 965 15
	ldr	r2, [sp, #20]
	ldr	r1, [sp]
	ldr	r0, [sp, #4]
	bl	put_fat
	mov	r3, r0
	strb	r3, [sp, #15]
.L102:
	.loc 1 967 8
	ldrb	r3, [sp, #15]	@ zero_extendqisi2
	cmp	r3, #0
	bne	.L103
	.loc 1 968 24
	ldr	r3, [sp, #4]
	ldr	r2, [sp, #20]
	str	r2, [r3, #12]
	.loc 1 969 15
	ldr	r3, [sp, #4]
	ldr	r3, [r3, #16]
	.loc 1 969 12
	cmp	r3, #-1
	beq	.L104
	.loc 1 970 15
	ldr	r3, [sp, #4]
	ldr	r3, [r3, #16]
	.loc 1 970 27
	subs	r2, r3, #1
	ldr	r3, [sp, #4]
	str	r2, [r3, #16]
	.loc 1 971 26
	ldr	r3, [sp, #4]
	ldrb	r3, [r3, #5]	@ zero_extendqisi2
	orr	r3, r3, #1
	uxtb	r2, r3
	ldr	r3, [sp, #4]
	strb	r2, [r3, #5]
	b	.L104
.L103:
	.loc 1 974 49
	ldrb	r3, [sp, #15]	@ zero_extendqisi2
	cmp	r3, #1
	bne	.L105
	.loc 1 974 49 is_stmt 0 discriminator 1
	mov	r3, #-1
	b	.L106
.L105:
	.loc 1 974 49 discriminator 2
	movs	r3, #1
.L106:
	.loc 1 974 13 is_stmt 1 discriminator 4
	str	r3, [sp, #20]
.L104:
	.loc 1 977 12
	ldr	r3, [sp, #20]
.L92:
	.loc 1 978 1
	mov	r0, r3
	add	sp, sp, #28
.LCFI30:
	@ sp needed
	ldr	pc, [sp], #4
.LFE11:
	.size	create_chain, .-create_chain
	.section	.text.clmt_clust,"ax",%progbits
	.align	1
	.syntax unified
	.thumb
	.thumb_func
	.fpu fpv5-d16
	.type	clmt_clust, %function
clmt_clust:
.LFB12:
	.loc 1 991 1
	@ args = 0, pretend = 0, frame = 24
	@ frame_needed = 0, uses_anonymous_args = 0
	@ link register save eliminated.
	sub	sp, sp, #24
.LCFI31:
	str	r0, [sp, #4]
	str	r1, [sp]
	.loc 1 994 13
	ldr	r3, [sp, #4]
	ldr	r3, [r3, #36]
	.loc 1 994 9
	adds	r3, r3, #4
	str	r3, [sp, #16]
	.loc 1 995 14
	ldr	r3, [sp]
	lsrs	r3, r3, #9
	.loc 1 995 31
	ldr	r2, [sp, #4]
	ldr	r2, [r2]
	.loc 1 995 35
	ldrb	r2, [r2, #2]	@ zero_extendqisi2
	.loc 1 995 8
	udiv	r3, r3, r2
	str	r3, [sp, #20]
.L114:
	.loc 1 997 19
	ldr	r3, [sp, #16]
	adds	r2, r3, #4
	str	r2, [sp, #16]
	.loc 1 997 13
	ldr	r3, [r3]
	str	r3, [sp, #12]
	.loc 1 998 12
	ldr	r3, [sp, #12]
	cmp	r3, #0
	bne	.L110
	.loc 1 998 26 discriminator 1
	movs	r3, #0
	b	.L111
.L110:
	.loc 1 999 12
	ldr	r2, [sp, #20]
	ldr	r3, [sp, #12]
	cmp	r2, r3
	bcc	.L116
	.loc 1 1000 12
	ldr	r2, [sp, #20]
	ldr	r3, [sp, #12]
	subs	r3, r2, r3
	str	r3, [sp, #20]
	.loc 1 1000 23
	ldr	r3, [sp, #16]
	adds	r3, r3, #4
	str	r3, [sp, #16]
	.loc 1 997 13
	b	.L114
.L116:
	.loc 1 999 9
	nop
	.loc 1 1002 17
	ldr	r3, [sp, #16]
	ldr	r2, [r3]
	.loc 1 1002 15
	ldr	r3, [sp, #20]
	add	r3, r3, r2
.L111:
	.loc 1 1003 1
	mov	r0, r3
	add	sp, sp, #24
.LCFI32:
	@ sp needed
	bx	lr
.LFE12:
	.size	clmt_clust, .-clmt_clust
	.section	.text.dir_sdi,"ax",%progbits
	.align	1
	.syntax unified
	.thumb
	.thumb_func
	.fpu fpv5-d16
	.type	dir_sdi, %function
dir_sdi:
.LFB13:
	.loc 1 1015 1
	@ args = 0, pretend = 0, frame = 24
	@ frame_needed = 0, uses_anonymous_args = 0
	push	{lr}
.LCFI33:
	sub	sp, sp, #28
.LCFI34:
	str	r0, [sp, #4]
	str	r1, [sp]
	.loc 1 1019 17
	ldr	r3, [sp]
	uxth	r2, r3
	.loc 1 1019 15
	ldr	r3, [sp, #4]
	strh	r2, [r3, #6]	@ movhi
	.loc 1 1020 10
	ldr	r3, [sp, #4]
	ldr	r3, [r3, #8]
	str	r3, [sp, #20]
	.loc 1 1021 8
	ldr	r3, [sp, #20]
	cmp	r3, #1
	beq	.L118
	.loc 1 1021 32 discriminator 1
	ldr	r3, [sp, #4]
	ldr	r3, [r3]
	.loc 1 1021 36 discriminator 1
	ldr	r3, [r3, #24]
	.loc 1 1021 19 discriminator 1
	ldr	r2, [sp, #20]
	cmp	r2, r3
	bcc	.L119
.L118:
	.loc 1 1022 16
	movs	r3, #2
	b	.L120
.L119:
	.loc 1 1023 8
	ldr	r3, [sp, #20]
	cmp	r3, #0
	bne	.L121
	.loc 1 1023 20 discriminator 1
	ldr	r3, [sp, #4]
	ldr	r3, [r3]
	.loc 1 1023 24 discriminator 1
	ldrb	r3, [r3]	@ zero_extendqisi2
	.loc 1 1023 15 discriminator 1
	cmp	r3, #3
	bne	.L121
	.loc 1 1024 18
	ldr	r3, [sp, #4]
	ldr	r3, [r3]
	.loc 1 1024 14
	ldr	r3, [r3, #40]
	str	r3, [sp, #20]
.L121:
	.loc 1 1026 8
	ldr	r3, [sp, #20]
	cmp	r3, #0
	bne	.L122
	.loc 1 1027 22
	ldr	r3, [sp, #4]
	ldr	r3, [r3]
	.loc 1 1027 26
	ldrh	r3, [r3, #8]
	mov	r2, r3
	.loc 1 1027 12
	ldr	r3, [sp]
	cmp	r3, r2
	bcc	.L123
	.loc 1 1028 20
	movs	r3, #2
	b	.L120
.L123:
	.loc 1 1029 18
	ldr	r3, [sp, #4]
	ldr	r3, [r3]
	.loc 1 1029 14
	ldr	r3, [r3, #40]
	str	r3, [sp, #16]
	b	.L124
.L122:
	.loc 1 1032 39
	ldr	r3, [sp, #4]
	ldr	r3, [r3]
	.loc 1 1032 43
	ldrb	r3, [r3, #2]	@ zero_extendqisi2
	.loc 1 1032 12
	lsls	r3, r3, #4
	str	r3, [sp, #12]
	.loc 1 1033 15
	b	.L125
.L129:
	.loc 1 1034 20
	ldr	r3, [sp, #4]
	ldr	r3, [r3]
	ldr	r1, [sp, #20]
	mov	r0, r3
	bl	get_fat
	str	r0, [sp, #20]
	.loc 1 1035 16
	ldr	r3, [sp, #20]
	cmp	r3, #-1
	bne	.L126
	.loc 1 1035 44 discriminator 1
	movs	r3, #1
	b	.L120
.L126:
	.loc 1 1036 16
	ldr	r3, [sp, #20]
	cmp	r3, #1
	bls	.L127
	.loc 1 1036 39 discriminator 1
	ldr	r3, [sp, #4]
	ldr	r3, [r3]
	.loc 1 1036 43 discriminator 1
	ldr	r3, [r3, #24]
	.loc 1 1036 26 discriminator 1
	ldr	r2, [sp, #20]
	cmp	r2, r3
	bcc	.L128
.L127:
	.loc 1 1037 24
	movs	r3, #2
	b	.L120
.L128:
	.loc 1 1038 17
	ldr	r2, [sp]
	ldr	r3, [sp, #12]
	subs	r3, r2, r3
	str	r3, [sp]
.L125:
	.loc 1 1033 15
	ldr	r2, [sp]
	ldr	r3, [sp, #12]
	cmp	r2, r3
	bcs	.L129
	.loc 1 1040 16
	ldr	r3, [sp, #4]
	ldr	r3, [r3]
	ldr	r1, [sp, #20]
	mov	r0, r3
	bl	clust2sect
	str	r0, [sp, #16]
.L124:
	.loc 1 1042 15
	ldr	r3, [sp, #4]
	ldr	r2, [sp, #20]
	str	r2, [r3, #12]
	.loc 1 1043 8
	ldr	r3, [sp, #16]
	cmp	r3, #0
	bne	.L130
	.loc 1 1043 23 discriminator 1
	movs	r3, #2
	b	.L120
.L130:
	.loc 1 1044 27
	ldr	r3, [sp]
	lsrs	r2, r3, #4
	.loc 1 1044 21
	ldr	r3, [sp, #16]
	add	r2, r2, r3
	.loc 1 1044 14
	ldr	r3, [sp, #4]
	str	r2, [r3, #16]
	.loc 1 1045 17
	ldr	r3, [sp, #4]
	ldr	r3, [r3]
	.loc 1 1045 15
	add	r2, r3, #52
	.loc 1 1045 34
	ldr	r3, [sp]
	and	r3, r3, #15
	.loc 1 1045 60
	lsls	r3, r3, #5
	.loc 1 1045 27
	add	r2, r2, r3
	.loc 1 1045 13
	ldr	r3, [sp, #4]
	str	r2, [r3, #20]
	.loc 1 1047 12
	movs	r3, #0
.L120:
	.loc 1 1048 1
	mov	r0, r3
	add	sp, sp, #28
.LCFI35:
	@ sp needed
	ldr	pc, [sp], #4
.LFE13:
	.size	dir_sdi, .-dir_sdi
	.section	.text.dir_next,"ax",%progbits
	.align	1
	.syntax unified
	.thumb
	.thumb_func
	.fpu fpv5-d16
	.type	dir_next, %function
dir_next:
.LFB14:
	.loc 1 1059 1
	@ args = 0, pretend = 0, frame = 24
	@ frame_needed = 0, uses_anonymous_args = 0
	push	{r4, lr}
.LCFI36:
	sub	sp, sp, #24
.LCFI37:
	str	r0, [sp, #4]
	str	r1, [sp]
	.loc 1 1066 11
	ldr	r3, [sp, #4]
	ldrh	r3, [r3, #6]
	.loc 1 1066 19
	adds	r3, r3, #1
	.loc 1 1066 7
	str	r3, [sp, #12]
	.loc 1 1067 13
	ldr	r3, [sp, #12]
	uxth	r3, r3
	.loc 1 1067 8
	cmp	r3, #0
	beq	.L132
	.loc 1 1067 29 discriminator 1
	ldr	r3, [sp, #4]
	ldr	r3, [r3, #16]
	.loc 1 1067 23 discriminator 1
	cmp	r3, #0
	bne	.L133
.L132:
	.loc 1 1068 16
	movs	r3, #4
	b	.L134
.L133:
	.loc 1 1070 13
	ldr	r3, [sp, #12]
	and	r3, r3, #15
	.loc 1 1070 8
	cmp	r3, #0
	bne	.L135
	.loc 1 1071 11
	ldr	r3, [sp, #4]
	ldr	r3, [r3, #16]
	.loc 1 1071 17
	adds	r2, r3, #1
	ldr	r3, [sp, #4]
	str	r2, [r3, #16]
	.loc 1 1073 16
	ldr	r3, [sp, #4]
	ldr	r3, [r3, #12]
	.loc 1 1073 12
	cmp	r3, #0
	bne	.L136
	.loc 1 1074 24
	ldr	r3, [sp, #4]
	ldr	r3, [r3]
	.loc 1 1074 28
	ldrh	r3, [r3, #8]
	mov	r2, r3
	.loc 1 1074 16
	ldr	r3, [sp, #12]
	cmp	r3, r2
	bcc	.L135
	.loc 1 1075 24
	movs	r3, #4
	b	.L134
.L136:
	.loc 1 1078 21
	ldr	r3, [sp, #12]
	lsrs	r3, r3, #4
	.loc 1 1078 52
	ldr	r2, [sp, #4]
	ldr	r2, [r2]
	.loc 1 1078 56
	ldrb	r2, [r2, #2]	@ zero_extendqisi2
	.loc 1 1078 64
	subs	r2, r2, #1
	.loc 1 1078 47
	ands	r3, r3, r2
	.loc 1 1078 16
	cmp	r3, #0
	bne	.L135
	.loc 1 1079 24
	ldr	r3, [sp, #4]
	ldr	r2, [r3]
	ldr	r3, [sp, #4]
	ldr	r3, [r3, #12]
	mov	r1, r3
	mov	r0, r2
	bl	get_fat
	str	r0, [sp, #20]
	.loc 1 1080 20
	ldr	r3, [sp, #20]
	cmp	r3, #1
	bhi	.L137
	.loc 1 1080 39 discriminator 1
	movs	r3, #2
	b	.L134
.L137:
	.loc 1 1081 20
	ldr	r3, [sp, #20]
	cmp	r3, #-1
	bne	.L138
	.loc 1 1081 48 discriminator 1
	movs	r3, #1
	b	.L134
.L138:
	.loc 1 1082 31
	ldr	r3, [sp, #4]
	ldr	r3, [r3]
	.loc 1 1082 35
	ldr	r3, [r3, #24]
	.loc 1 1082 20
	ldr	r2, [sp, #20]
	cmp	r2, r3
	bcc	.L139
	.loc 1 1084 24
	ldr	r3, [sp]
	cmp	r3, #0
	bne	.L140
	.loc 1 1084 42 discriminator 1
	movs	r3, #4
	b	.L134
.L140:
	.loc 1 1085 28
	ldr	r3, [sp, #4]
	ldr	r2, [r3]
	ldr	r3, [sp, #4]
	ldr	r3, [r3, #12]
	mov	r1, r3
	mov	r0, r2
	bl	create_chain
	str	r0, [sp, #20]
	.loc 1 1086 24
	ldr	r3, [sp, #20]
	cmp	r3, #0
	bne	.L141
	.loc 1 1086 43 discriminator 1
	movs	r3, #7
	b	.L134
.L141:
	.loc 1 1087 24
	ldr	r3, [sp, #20]
	cmp	r3, #1
	bne	.L142
	.loc 1 1087 43 discriminator 1
	movs	r3, #2
	b	.L134
.L142:
	.loc 1 1088 24
	ldr	r3, [sp, #20]
	cmp	r3, #-1
	bne	.L143
	.loc 1 1088 52 discriminator 1
	movs	r3, #1
	b	.L134
.L143:
	.loc 1 1090 25
	ldr	r3, [sp, #4]
	ldr	r3, [r3]
	mov	r0, r3
	bl	sync_window
	mov	r3, r0
	.loc 1 1090 24
	cmp	r3, #0
	beq	.L144
	.loc 1 1090 53 discriminator 1
	movs	r3, #1
	b	.L134
.L144:
	.loc 1 1091 31
	ldr	r3, [sp, #4]
	ldr	r3, [r3]
	.loc 1 1091 35
	adds	r3, r3, #52
	.loc 1 1091 21
	mov	r2, #512
	movs	r1, #0
	mov	r0, r3
	bl	mem_set
	.loc 1 1092 39
	ldr	r3, [sp, #4]
	ldr	r2, [r3]
	.loc 1 1092 23
	ldr	r3, [sp, #4]
	ldr	r4, [r3]
	.loc 1 1092 39
	ldr	r1, [sp, #20]
	mov	r0, r2
	bl	clust2sect
	mov	r3, r0
	.loc 1 1092 37
	str	r3, [r4, #48]
	.loc 1 1093 28
	movs	r3, #0
	str	r3, [sp, #16]
	.loc 1 1093 21
	b	.L145
.L147:
	.loc 1 1094 27
	ldr	r3, [sp, #4]
	ldr	r3, [r3]
	.loc 1 1094 39
	movs	r2, #1
	strb	r2, [r3, #4]
	.loc 1 1095 29
	ldr	r3, [sp, #4]
	ldr	r3, [r3]
	mov	r0, r3
	bl	sync_window
	mov	r3, r0
	.loc 1 1095 28
	cmp	r3, #0
	beq	.L146
	.loc 1 1095 57 discriminator 1
	movs	r3, #1
	b	.L134
.L146:
	.loc 1 1096 27 discriminator 2
	ldr	r3, [sp, #4]
	ldr	r3, [r3]
	.loc 1 1096 31 discriminator 2
	ldr	r2, [r3, #48]
	.loc 1 1096 40 discriminator 2
	adds	r2, r2, #1
	str	r2, [r3, #48]
	.loc 1 1093 53 discriminator 2
	ldr	r3, [sp, #16]
	adds	r3, r3, #1
	str	r3, [sp, #16]
.L145:
	.loc 1 1093 39 discriminator 1
	ldr	r3, [sp, #4]
	ldr	r3, [r3]
	.loc 1 1093 43 discriminator 1
	ldrb	r3, [r3, #2]	@ zero_extendqisi2
	mov	r2, r3
	.loc 1 1093 21 discriminator 1
	ldr	r3, [sp, #16]
	cmp	r3, r2
	bcc	.L147
	.loc 1 1098 23
	ldr	r3, [sp, #4]
	ldr	r3, [r3]
	.loc 1 1098 37
	ldr	r1, [r3, #48]
	.loc 1 1098 23
	ldr	r3, [sp, #4]
	ldr	r3, [r3]
	.loc 1 1098 37
	ldr	r2, [sp, #16]
	subs	r2, r1, r2
	str	r2, [r3, #48]
.L139:
	.loc 1 1104 27
	ldr	r3, [sp, #4]
	ldr	r2, [sp, #20]
	str	r2, [r3, #12]
	.loc 1 1105 28
	ldr	r3, [sp, #4]
	ldr	r3, [r3]
	ldr	r1, [sp, #20]
	mov	r0, r3
	bl	clust2sect
	mov	r2, r0
	.loc 1 1105 26
	ldr	r3, [sp, #4]
	str	r2, [r3, #16]
.L135:
	.loc 1 1110 17
	ldr	r3, [sp, #12]
	uxth	r2, r3
	.loc 1 1110 15
	ldr	r3, [sp, #4]
	strh	r2, [r3, #6]	@ movhi
	.loc 1 1111 17
	ldr	r3, [sp, #4]
	ldr	r3, [r3]
	.loc 1 1111 15
	add	r2, r3, #52
	.loc 1 1111 32
	ldr	r3, [sp, #12]
	and	r3, r3, #15
	.loc 1 1111 58
	lsls	r3, r3, #5
	.loc 1 1111 27
	add	r2, r2, r3
	.loc 1 1111 13
	ldr	r3, [sp, #4]
	str	r2, [r3, #20]
	.loc 1 1113 12
	movs	r3, #0
.L134:
	.loc 1 1114 1
	mov	r0, r3
	add	sp, sp, #24
.LCFI38:
	@ sp needed
	pop	{r4, pc}
.LFE14:
	.size	dir_next, .-dir_next
	.section	.text.dir_alloc,"ax",%progbits
	.align	1
	.syntax unified
	.thumb
	.thumb_func
	.fpu fpv5-d16
	.type	dir_alloc, %function
dir_alloc:
.LFB15:
	.loc 1 1126 1
	@ args = 0, pretend = 0, frame = 16
	@ frame_needed = 0, uses_anonymous_args = 0
	push	{lr}
.LCFI39:
	sub	sp, sp, #20
.LCFI40:
	str	r0, [sp, #4]
	str	r1, [sp]
	.loc 1 1130 11
	movs	r1, #0
	ldr	r0, [sp, #4]
	bl	dir_sdi
	mov	r3, r0
	strb	r3, [sp, #15]
	.loc 1 1131 8
	ldrb	r3, [sp, #15]	@ zero_extendqisi2
	cmp	r3, #0
	bne	.L149
	.loc 1 1132 11
	movs	r3, #0
	str	r3, [sp, #8]
.L155:
	.loc 1 1134 19
	ldr	r3, [sp, #4]
	ldr	r2, [r3]
	ldr	r3, [sp, #4]
	ldr	r3, [r3, #16]
	mov	r1, r3
	mov	r0, r2
	bl	move_window
	mov	r3, r0
	strb	r3, [sp, #15]
	.loc 1 1135 16
	ldrb	r3, [sp, #15]	@ zero_extendqisi2
	cmp	r3, #0
	bne	.L158
	.loc 1 1136 19
	ldr	r3, [sp, #4]
	ldr	r3, [r3, #20]
	.loc 1 1136 24
	ldrb	r3, [r3]	@ zero_extendqisi2
	.loc 1 1136 16
	cmp	r3, #229
	beq	.L151
	.loc 1 1136 41 discriminator 1
	ldr	r3, [sp, #4]
	ldr	r3, [r3, #20]
	.loc 1 1136 46 discriminator 1
	ldrb	r3, [r3]	@ zero_extendqisi2
	.loc 1 1136 36 discriminator 1
	cmp	r3, #0
	bne	.L152
.L151:
	.loc 1 1137 20
	ldr	r3, [sp, #8]
	adds	r3, r3, #1
	str	r3, [sp, #8]
	ldr	r2, [sp, #8]
	ldr	r3, [sp]
	cmp	r2, r3
	bne	.L154
	.loc 1 1137 17
	b	.L149
.L152:
	.loc 1 1139 19
	movs	r3, #0
	str	r3, [sp, #8]
.L154:
	.loc 1 1141 19
	movs	r1, #1
	ldr	r0, [sp, #4]
	bl	dir_next
	mov	r3, r0
	strb	r3, [sp, #15]
	.loc 1 1142 9
	ldrb	r3, [sp, #15]	@ zero_extendqisi2
	cmp	r3, #0
	beq	.L155
	b	.L149
.L158:
	.loc 1 1135 13
	nop
.L149:
	.loc 1 1144 8
	ldrb	r3, [sp, #15]	@ zero_extendqisi2
	cmp	r3, #4
	bne	.L156
	.loc 1 1144 32 discriminator 1
	movs	r3, #7
	strb	r3, [sp, #15]
.L156:
	.loc 1 1145 12
	ldrb	r3, [sp, #15]	@ zero_extendqisi2
	.loc 1 1146 1
	mov	r0, r3
	add	sp, sp, #20
.LCFI41:
	@ sp needed
	ldr	pc, [sp], #4
.LFE15:
	.size	dir_alloc, .-dir_alloc
	.section	.text.ld_clust,"ax",%progbits
	.align	1
	.syntax unified
	.thumb
	.thumb_func
	.fpu fpv5-d16
	.type	ld_clust, %function
ld_clust:
.LFB16:
	.loc 1 1158 1
	@ args = 0, pretend = 0, frame = 16
	@ frame_needed = 0, uses_anonymous_args = 0
	@ link register save eliminated.
	sub	sp, sp, #16
.LCFI42:
	str	r0, [sp, #4]
	str	r1, [sp]
	.loc 1 1161 10
	ldr	r3, [sp]
	adds	r3, r3, #26
	adds	r3, r3, #1
	ldrb	r3, [r3]	@ zero_extendqisi2
	lsls	r3, r3, #8
	sxth	r2, r3
	ldr	r3, [sp]
	adds	r3, r3, #26
	ldrb	r3, [r3]	@ zero_extendqisi2
	sxth	r3, r3
	orrs	r3, r3, r2
	sxth	r3, r3
	uxth	r3, r3
	.loc 1 1161 8
	str	r3, [sp, #12]
	.loc 1 1162 11
	ldr	r3, [sp, #4]
	ldrb	r3, [r3]	@ zero_extendqisi2
	.loc 1 1162 8
	cmp	r3, #3
	bne	.L160
	.loc 1 1163 22
	ldr	r3, [sp]
	adds	r3, r3, #20
	adds	r3, r3, #1
	ldrb	r3, [r3]	@ zero_extendqisi2
	lsls	r3, r3, #8
	sxth	r2, r3
	ldr	r3, [sp]
	adds	r3, r3, #20
	ldrb	r3, [r3]	@ zero_extendqisi2
	sxth	r3, r3
	orrs	r3, r3, r2
	sxth	r3, r3
	uxth	r3, r3
	.loc 1 1163 51
	lsls	r3, r3, #16
	.loc 1 1163 12
	ldr	r2, [sp, #12]
	orrs	r3, r3, r2
	str	r3, [sp, #12]
.L160:
	.loc 1 1165 12
	ldr	r3, [sp, #12]
	.loc 1 1166 1
	mov	r0, r3
	add	sp, sp, #16
.LCFI43:
	@ sp needed
	bx	lr
.LFE16:
	.size	ld_clust, .-ld_clust
	.section	.text.st_clust,"ax",%progbits
	.align	1
	.syntax unified
	.thumb
	.thumb_func
	.fpu fpv5-d16
	.type	st_clust, %function
st_clust:
.LFB17:
	.loc 1 1174 1
	@ args = 0, pretend = 0, frame = 8
	@ frame_needed = 0, uses_anonymous_args = 0
	@ link register save eliminated.
	sub	sp, sp, #8
.LCFI44:
	str	r0, [sp, #4]
	str	r1, [sp]
	.loc 1 1175 5
	ldr	r3, [sp, #4]
	adds	r3, r3, #26
	ldr	r2, [sp]
	uxtb	r2, r2
	strb	r2, [r3]
	ldr	r3, [sp]
	uxth	r3, r3
	lsrs	r3, r3, #8
	uxth	r2, r3
	ldr	r3, [sp, #4]
	adds	r3, r3, #27
	uxtb	r2, r2
	strb	r2, [r3]
	.loc 1 1176 5
	ldr	r3, [sp]
	lsrs	r2, r3, #16
	ldr	r3, [sp, #4]
	adds	r3, r3, #20
	uxtb	r2, r2
	strb	r2, [r3]
	ldr	r3, [sp]
	lsrs	r3, r3, #16
	uxth	r3, r3
	lsrs	r3, r3, #8
	uxth	r2, r3
	ldr	r3, [sp, #4]
	adds	r3, r3, #21
	uxtb	r2, r2
	strb	r2, [r3]
	.loc 1 1177 1
	nop
	add	sp, sp, #8
.LCFI45:
	@ sp needed
	bx	lr
.LFE17:
	.size	st_clust, .-st_clust
	.section	.text.dir_find,"ax",%progbits
	.align	1
	.syntax unified
	.thumb
	.thumb_func
	.fpu fpv5-d16
	.type	dir_find, %function
dir_find:
.LFB18:
	.loc 1 1359 1
	@ args = 0, pretend = 0, frame = 24
	@ frame_needed = 0, uses_anonymous_args = 0
	push	{lr}
.LCFI46:
	sub	sp, sp, #28
.LCFI47:
	str	r0, [sp, #4]
	.loc 1 1366 11
	movs	r1, #0
	ldr	r0, [sp, #4]
	bl	dir_sdi
	mov	r3, r0
	strb	r3, [sp, #23]
	.loc 1 1367 8
	ldrb	r3, [sp, #23]	@ zero_extendqisi2
	cmp	r3, #0
	beq	.L164
	.loc 1 1367 30 discriminator 1
	ldrb	r3, [sp, #23]	@ zero_extendqisi2
	b	.L165
.L164:
	.loc 1 1373 15
	ldr	r3, [sp, #4]
	ldr	r2, [r3]
	ldr	r3, [sp, #4]
	ldr	r3, [r3, #16]
	mov	r1, r3
	mov	r0, r2
	bl	move_window
	mov	r3, r0
	strb	r3, [sp, #23]
	.loc 1 1374 12
	ldrb	r3, [sp, #23]	@ zero_extendqisi2
	cmp	r3, #0
	bne	.L170
	.loc 1 1375 13
	ldr	r3, [sp, #4]
	ldr	r3, [r3, #20]
	str	r3, [sp, #16]
	.loc 1 1376 11
	ldr	r3, [sp, #16]
	ldrb	r3, [r3]
	strb	r3, [sp, #15]
	.loc 1 1377 12
	ldrb	r3, [sp, #15]	@ zero_extendqisi2
	cmp	r3, #0
	bne	.L168
	.loc 1 1377 27 discriminator 1
	movs	r3, #4
	strb	r3, [sp, #23]
	.loc 1 1377 9 discriminator 1
	b	.L167
.L168:
	.loc 1 1400 18
	ldr	r3, [sp, #16]
	adds	r3, r3, #11
	ldrb	r3, [r3]	@ zero_extendqisi2
	.loc 1 1400 29
	and	r3, r3, #8
	.loc 1 1400 12
	cmp	r3, #0
	bne	.L169
	.loc 1 1400 58 discriminator 1
	ldr	r3, [sp, #4]
	ldr	r3, [r3, #24]
	.loc 1 1400 43 discriminator 1
	movs	r2, #11
	mov	r1, r3
	ldr	r0, [sp, #16]
	bl	mem_cmp
	mov	r3, r0
	.loc 1 1400 39 discriminator 1
	cmp	r3, #0
	beq	.L171
.L169:
	.loc 1 1403 15
	movs	r1, #0
	ldr	r0, [sp, #4]
	bl	dir_next
	mov	r3, r0
	strb	r3, [sp, #23]
	.loc 1 1404 5
	ldrb	r3, [sp, #23]	@ zero_extendqisi2
	cmp	r3, #0
	beq	.L164
	b	.L167
.L170:
	.loc 1 1374 9
	nop
	b	.L167
.L171:
	.loc 1 1401 13
	nop
.L167:
	.loc 1 1406 12
	ldrb	r3, [sp, #23]	@ zero_extendqisi2
.L165:
	.loc 1 1407 1
	mov	r0, r3
	add	sp, sp, #28
.LCFI48:
	@ sp needed
	ldr	pc, [sp], #4
.LFE18:
	.size	dir_find, .-dir_find
	.section	.text.dir_read,"ax",%progbits
	.align	1
	.syntax unified
	.thumb
	.thumb_func
	.fpu fpv5-d16
	.type	dir_read, %function
dir_read:
.LFB19:
	.loc 1 1418 1
	@ args = 0, pretend = 0, frame = 24
	@ frame_needed = 0, uses_anonymous_args = 0
	push	{lr}
.LCFI49:
	sub	sp, sp, #28
.LCFI50:
	str	r0, [sp, #4]
	str	r1, [sp]
	.loc 1 1425 9
	movs	r3, #4
	strb	r3, [sp, #23]
	.loc 1 1426 11
	b	.L173
.L178:
	.loc 1 1427 15
	ldr	r3, [sp, #4]
	ldr	r2, [r3]
	ldr	r3, [sp, #4]
	ldr	r3, [r3, #16]
	mov	r1, r3
	mov	r0, r2
	bl	move_window
	mov	r3, r0
	strb	r3, [sp, #23]
	.loc 1 1428 12
	ldrb	r3, [sp, #23]	@ zero_extendqisi2
	cmp	r3, #0
	bne	.L181
	.loc 1 1429 13
	ldr	r3, [sp, #4]
	ldr	r3, [r3, #20]
	str	r3, [sp, #16]
	.loc 1 1430 11
	ldr	r3, [sp, #16]
	ldrb	r3, [r3]
	strb	r3, [sp, #15]
	.loc 1 1431 12
	ldrb	r3, [sp, #15]	@ zero_extendqisi2
	cmp	r3, #0
	bne	.L176
	.loc 1 1431 27 discriminator 1
	movs	r3, #4
	strb	r3, [sp, #23]
	.loc 1 1431 9 discriminator 1
	b	.L175
.L176:
	.loc 1 1432 16
	ldr	r3, [sp, #16]
	adds	r3, r3, #11
	ldrb	r3, [r3]	@ zero_extendqisi2
	.loc 1 1432 11
	and	r3, r3, #63
	strb	r3, [sp, #14]
	.loc 1 1452 12
	ldrb	r3, [sp, #15]	@ zero_extendqisi2
	cmp	r3, #229
	beq	.L177
	.loc 1 1452 50 discriminator 1
	ldrb	r3, [sp, #14]	@ zero_extendqisi2
	cmp	r3, #15
	beq	.L177
	.loc 1 1452 77 discriminator 2
	ldrb	r3, [sp, #14]	@ zero_extendqisi2
	bic	r3, r3, #32
	.loc 1 1452 68 discriminator 2
	cmp	r3, #8
	ite	eq
	moveq	r3, #1
	movne	r3, #0
	uxtb	r3, r3
	mov	r2, r3
	.loc 1 1452 65 discriminator 2
	ldr	r3, [sp]
	cmp	r3, r2
	beq	.L182
.L177:
	.loc 1 1455 15
	movs	r1, #0
	ldr	r0, [sp, #4]
	bl	dir_next
	mov	r3, r0
	strb	r3, [sp, #23]
	.loc 1 1456 12
	ldrb	r3, [sp, #23]	@ zero_extendqisi2
	cmp	r3, #0
	bne	.L183
.L173:
	.loc 1 1426 14
	ldr	r3, [sp, #4]
	ldr	r3, [r3, #16]
	.loc 1 1426 11
	cmp	r3, #0
	bne	.L178
	b	.L175
.L181:
	.loc 1 1428 9
	nop
	b	.L175
.L182:
	.loc 1 1453 13
	nop
	b	.L175
.L183:
	.loc 1 1456 9
	nop
.L175:
	.loc 1 1459 8
	ldrb	r3, [sp, #23]	@ zero_extendqisi2
	cmp	r3, #0
	beq	.L179
	.loc 1 1459 32 discriminator 1
	ldr	r3, [sp, #4]
	movs	r2, #0
	str	r2, [r3, #16]
.L179:
	.loc 1 1461 12
	ldrb	r3, [sp, #23]	@ zero_extendqisi2
	.loc 1 1462 1
	mov	r0, r3
	add	sp, sp, #28
.LCFI51:
	@ sp needed
	ldr	pc, [sp], #4
.LFE19:
	.size	dir_read, .-dir_read
	.section	.text.dir_register,"ax",%progbits
	.align	1
	.syntax unified
	.thumb
	.thumb_func
	.fpu fpv5-d16
	.type	dir_register, %function
dir_register:
.LFB20:
	.loc 1 1473 1
	@ args = 0, pretend = 0, frame = 16
	@ frame_needed = 0, uses_anonymous_args = 0
	push	{lr}
.LCFI52:
	sub	sp, sp, #20
.LCFI53:
	str	r0, [sp, #4]
	.loc 1 1520 11
	movs	r1, #1
	ldr	r0, [sp, #4]
	bl	dir_alloc
	mov	r3, r0
	strb	r3, [sp, #15]
	.loc 1 1523 8
	ldrb	r3, [sp, #15]	@ zero_extendqisi2
	cmp	r3, #0
	bne	.L185
	.loc 1 1524 15
	ldr	r3, [sp, #4]
	ldr	r2, [r3]
	ldr	r3, [sp, #4]
	ldr	r3, [r3, #16]
	mov	r1, r3
	mov	r0, r2
	bl	move_window
	mov	r3, r0
	strb	r3, [sp, #15]
	.loc 1 1525 12
	ldrb	r3, [sp, #15]	@ zero_extendqisi2
	cmp	r3, #0
	bne	.L185
	.loc 1 1526 23
	ldr	r3, [sp, #4]
	ldr	r3, [r3, #20]
	.loc 1 1526 13
	movs	r2, #32
	movs	r1, #0
	mov	r0, r3
	bl	mem_set
	.loc 1 1527 23
	ldr	r3, [sp, #4]
	ldr	r0, [r3, #20]
	.loc 1 1527 32
	ldr	r3, [sp, #4]
	ldr	r3, [r3, #24]
	.loc 1 1527 13
	movs	r2, #11
	mov	r1, r3
	bl	mem_cpy
	.loc 1 1531 15
	ldr	r3, [sp, #4]
	ldr	r3, [r3]
	.loc 1 1531 27
	movs	r2, #1
	strb	r2, [r3, #4]
.L185:
	.loc 1 1535 12
	ldrb	r3, [sp, #15]	@ zero_extendqisi2
	.loc 1 1536 1
	mov	r0, r3
	add	sp, sp, #20
.LCFI54:
	@ sp needed
	ldr	pc, [sp], #4
.LFE20:
	.size	dir_register, .-dir_register
	.section	.text.dir_remove,"ax",%progbits
	.align	1
	.syntax unified
	.thumb
	.thumb_func
	.fpu fpv5-d16
	.type	dir_remove, %function
dir_remove:
.LFB21:
	.loc 1 1547 1
	@ args = 0, pretend = 0, frame = 16
	@ frame_needed = 0, uses_anonymous_args = 0
	push	{lr}
.LCFI55:
	sub	sp, sp, #20
.LCFI56:
	str	r0, [sp, #4]
	.loc 1 1568 25
	ldr	r3, [sp, #4]
	ldrh	r3, [r3, #6]
	.loc 1 1568 11
	mov	r1, r3
	ldr	r0, [sp, #4]
	bl	dir_sdi
	mov	r3, r0
	strb	r3, [sp, #15]
	.loc 1 1569 8
	ldrb	r3, [sp, #15]	@ zero_extendqisi2
	cmp	r3, #0
	bne	.L188
	.loc 1 1570 15
	ldr	r3, [sp, #4]
	ldr	r2, [r3]
	ldr	r3, [sp, #4]
	ldr	r3, [r3, #16]
	mov	r1, r3
	mov	r0, r2
	bl	move_window
	mov	r3, r0
	strb	r3, [sp, #15]
	.loc 1 1571 12
	ldrb	r3, [sp, #15]	@ zero_extendqisi2
	cmp	r3, #0
	bne	.L188
	.loc 1 1572 23
	ldr	r3, [sp, #4]
	ldr	r3, [r3, #20]
	.loc 1 1572 13
	movs	r2, #32
	movs	r1, #0
	mov	r0, r3
	bl	mem_set
	.loc 1 1573 16
	ldr	r3, [sp, #4]
	ldr	r3, [r3, #20]
	.loc 1 1573 22
	movs	r2, #229
	strb	r2, [r3]
	.loc 1 1574 15
	ldr	r3, [sp, #4]
	ldr	r3, [r3]
	.loc 1 1574 27
	movs	r2, #1
	strb	r2, [r3, #4]
.L188:
	.loc 1 1579 12
	ldrb	r3, [sp, #15]	@ zero_extendqisi2
	.loc 1 1580 1
	mov	r0, r3
	add	sp, sp, #20
.LCFI57:
	@ sp needed
	ldr	pc, [sp], #4
.LFE21:
	.size	dir_remove, .-dir_remove
	.section	.text.get_fileinfo,"ax",%progbits
	.align	1
	.syntax unified
	.thumb
	.thumb_func
	.fpu fpv5-d16
	.type	get_fileinfo, %function
get_fileinfo:
.LFB22:
	.loc 1 1592 1
	@ args = 0, pretend = 0, frame = 24
	@ frame_needed = 0, uses_anonymous_args = 0
	@ link register save eliminated.
	sub	sp, sp, #24
.LCFI58:
	str	r0, [sp, #4]
	str	r1, [sp]
	.loc 1 1600 7
	ldr	r3, [sp]
	adds	r3, r3, #9
	str	r3, [sp, #16]
	.loc 1 1601 11
	ldr	r3, [sp, #4]
	ldr	r3, [r3, #16]
	.loc 1 1601 8
	cmp	r3, #0
	beq	.L191
	.loc 1 1602 13
	ldr	r3, [sp, #4]
	ldr	r3, [r3, #20]
	str	r3, [sp, #8]
	.loc 1 1603 11
	movs	r3, #0
	str	r3, [sp, #20]
	.loc 1 1604 15
	b	.L192
.L196:
	.loc 1 1605 29
	ldr	r3, [sp, #20]
	adds	r2, r3, #1
	str	r2, [sp, #20]
	.loc 1 1605 27
	ldr	r2, [sp, #8]
	add	r3, r3, r2
	.loc 1 1605 15
	ldrb	r3, [r3]
	strb	r3, [sp, #15]
	.loc 1 1606 16
	ldrb	r3, [sp, #15]	@ zero_extendqisi2
	cmp	r3, #32
	bne	.L193
	.loc 1 1606 13 discriminator 1
	b	.L192
.L193:
	.loc 1 1607 16
	ldrb	r3, [sp, #15]	@ zero_extendqisi2
	cmp	r3, #5
	bne	.L194
	.loc 1 1607 31 discriminator 1
	movs	r3, #229
	strb	r3, [sp, #15]
.L194:
	.loc 1 1608 16
	ldr	r3, [sp, #20]
	cmp	r3, #9
	bne	.L195
	.loc 1 1608 27 discriminator 1
	ldr	r3, [sp, #16]
	adds	r2, r3, #1
	str	r2, [sp, #16]
	.loc 1 1608 30 discriminator 1
	movs	r2, #46
	strb	r2, [r3]
.L195:
	.loc 1 1619 15
	ldr	r3, [sp, #16]
	adds	r2, r3, #1
	str	r2, [sp, #16]
	.loc 1 1619 18
	ldrb	r2, [sp, #15]
	strb	r2, [r3]
.L192:
	.loc 1 1604 15
	ldr	r3, [sp, #20]
	cmp	r3, #10
	bls	.L196
	.loc 1 1621 22
	ldr	r3, [sp, #8]
	ldrb	r2, [r3, #11]	@ zero_extendqisi2
	ldr	r3, [sp]
	strb	r2, [r3, #8]
	.loc 1 1622 22
	ldr	r3, [sp, #8]
	adds	r3, r3, #31
	ldrb	r3, [r3]	@ zero_extendqisi2
	lsls	r2, r3, #24
	ldr	r3, [sp, #8]
	adds	r3, r3, #30
	ldrb	r3, [r3]	@ zero_extendqisi2
	lsls	r3, r3, #16
	orrs	r3, r3, r2
	ldr	r2, [sp, #8]
	adds	r2, r2, #29
	ldrb	r2, [r2]	@ zero_extendqisi2
	lsls	r2, r2, #8
	orrs	r3, r3, r2
	ldr	r2, [sp, #8]
	adds	r2, r2, #28
	ldrb	r2, [r2]	@ zero_extendqisi2
	orrs	r2, r2, r3
	.loc 1 1622 20
	ldr	r3, [sp]
	str	r2, [r3]
	.loc 1 1623 22
	ldr	r3, [sp, #8]
	adds	r3, r3, #25
	ldrb	r3, [r3]	@ zero_extendqisi2
	lsls	r3, r3, #8
	sxth	r2, r3
	ldr	r3, [sp, #8]
	adds	r3, r3, #24
	ldrb	r3, [r3]	@ zero_extendqisi2
	sxth	r3, r3
	orrs	r3, r3, r2
	sxth	r3, r3
	uxth	r2, r3
	.loc 1 1623 20
	ldr	r3, [sp]
	strh	r2, [r3, #4]	@ movhi
	.loc 1 1624 22
	ldr	r3, [sp, #8]
	adds	r3, r3, #23
	ldrb	r3, [r3]	@ zero_extendqisi2
	lsls	r3, r3, #8
	sxth	r2, r3
	ldr	r3, [sp, #8]
	adds	r3, r3, #22
	ldrb	r3, [r3]	@ zero_extendqisi2
	sxth	r3, r3
	orrs	r3, r3, r2
	sxth	r3, r3
	uxth	r2, r3
	.loc 1 1624 20
	ldr	r3, [sp]
	strh	r2, [r3, #6]	@ movhi
.L191:
	.loc 1 1626 8
	ldr	r3, [sp, #16]
	movs	r2, #0
	strb	r2, [r3]
	.loc 1 1647 1
	nop
	add	sp, sp, #24
.LCFI59:
	@ sp needed
	bx	lr
.LFE22:
	.size	get_fileinfo, .-get_fileinfo
	.section .rodata
	.align	2
.LC0:
	.ascii	"\"*+,:;<=>?[]|\177\000"
	.section	.text.create_name,"ax",%progbits
	.align	1
	.syntax unified
	.thumb
	.thumb_func
	.fpu fpv5-d16
	.type	create_name, %function
create_name:
.LFB23:
	.loc 1 1724 1
	@ args = 0, pretend = 0, frame = 32
	@ frame_needed = 0, uses_anonymous_args = 0
	push	{lr}
.LCFI60:
	sub	sp, sp, #36
.LCFI61:
	str	r0, [sp, #4]
	str	r1, [sp]
	.loc 1 1850 12
	ldr	r3, [sp]
	ldr	r3, [r3]
	str	r3, [sp, #12]
	.loc 1 1850 5
	b	.L198
.L199:
	.loc 1 1850 47 discriminator 5
	ldr	r3, [sp, #12]
	adds	r3, r3, #1
	str	r3, [sp, #12]
.L198:
	.loc 1 1850 21 discriminator 1
	ldr	r3, [sp, #12]
	ldrb	r3, [r3]	@ zero_extendqisi2
	.loc 1 1850 5 discriminator 1
	cmp	r3, #47
	beq	.L199
	.loc 1 1850 34 discriminator 4
	ldr	r3, [sp, #12]
	ldrb	r3, [r3]	@ zero_extendqisi2
	.loc 1 1850 31 discriminator 4
	cmp	r3, #92
	beq	.L199
	.loc 1 1851 9
	ldr	r3, [sp, #4]
	ldr	r3, [r3, #24]
	str	r3, [sp, #8]
	.loc 1 1852 5
	movs	r2, #11
	movs	r1, #32
	ldr	r0, [sp, #8]
	bl	mem_set
	.loc 1 1853 16
	movs	r3, #0
	strb	r3, [sp, #31]
	.loc 1 1853 12
	movs	r3, #0
	str	r3, [sp, #16]
	.loc 1 1853 8
	ldr	r3, [sp, #16]
	str	r3, [sp, #20]
	.loc 1 1853 24
	movs	r3, #8
	str	r3, [sp, #24]
	.loc 1 1855 10
	ldr	r2, [sp, #12]
	ldr	r3, [sp, #20]
	add	r3, r3, r2
	ldrb	r3, [r3]	@ zero_extendqisi2
	.loc 1 1855 8
	cmp	r3, #46
	bne	.L200
.L202:
	.loc 1 1857 27
	ldr	r3, [sp, #20]
	adds	r2, r3, #1
	str	r2, [sp, #20]
	.loc 1 1857 24
	ldr	r2, [sp, #12]
	add	r3, r3, r2
	.loc 1 1857 15
	ldrb	r3, [r3]
	strb	r3, [sp, #30]
	.loc 1 1858 16
	ldrb	r3, [sp, #30]	@ zero_extendqisi2
	cmp	r3, #46
	bne	.L201
	.loc 1 1858 26 discriminator 1
	ldr	r3, [sp, #20]
	cmp	r3, #2
	bhi	.L201
	.loc 1 1859 18
	ldr	r3, [sp, #16]
	adds	r2, r3, #1
	str	r2, [sp, #16]
	.loc 1 1859 16
	ldr	r2, [sp, #8]
	add	r3, r3, r2
	.loc 1 1859 22
	ldrb	r2, [sp, #30]
	strb	r2, [r3]
	.loc 1 1857 15
	b	.L202
.L201:
	.loc 1 1861 12
	ldrb	r3, [sp, #30]	@ zero_extendqisi2
	cmp	r3, #47
	beq	.L203
	.loc 1 1861 22 discriminator 1
	ldrb	r3, [sp, #30]	@ zero_extendqisi2
	cmp	r3, #92
	beq	.L203
	.loc 1 1861 35 discriminator 2
	ldrb	r3, [sp, #30]	@ zero_extendqisi2
	cmp	r3, #32
	bls	.L203
	.loc 1 1861 54 discriminator 3
	movs	r3, #6
	b	.L204
.L203:
	.loc 1 1862 17
	ldr	r2, [sp, #12]
	ldr	r3, [sp, #20]
	add	r2, r2, r3
	.loc 1 1862 15
	ldr	r3, [sp]
	str	r2, [r3]
	.loc 1 1863 21
	ldrb	r3, [sp, #30]	@ zero_extendqisi2
	cmp	r3, #32
	bhi	.L205
	.loc 1 1863 21 is_stmt 0 discriminator 1
	movs	r2, #36
	b	.L206
.L205:
	.loc 1 1863 21 discriminator 2
	movs	r2, #32
.L206:
	.loc 1 1863 12 is_stmt 1 discriminator 4
	ldr	r3, [sp, #8]
	adds	r3, r3, #11
	.loc 1 1863 21 discriminator 4
	strb	r2, [r3]
	.loc 1 1864 16 discriminator 4
	movs	r3, #0
	b	.L204
.L200:
	.loc 1 1868 23
	ldr	r3, [sp, #20]
	adds	r2, r3, #1
	str	r2, [sp, #20]
	.loc 1 1868 20
	ldr	r2, [sp, #12]
	add	r3, r3, r2
	.loc 1 1868 11
	ldrb	r3, [r3]
	strb	r3, [sp, #30]
	.loc 1 1869 12
	ldrb	r3, [sp, #30]	@ zero_extendqisi2
	cmp	r3, #32
	bls	.L207
	.loc 1 1869 22 discriminator 1
	ldrb	r3, [sp, #30]	@ zero_extendqisi2
	cmp	r3, #47
	beq	.L207
	.loc 1 1869 34 discriminator 2
	ldrb	r3, [sp, #30]	@ zero_extendqisi2
	cmp	r3, #92
	beq	.L207
	.loc 1 1870 12
	ldrb	r3, [sp, #30]	@ zero_extendqisi2
	cmp	r3, #46
	beq	.L208
	.loc 1 1870 22 discriminator 1
	ldr	r2, [sp, #16]
	ldr	r3, [sp, #24]
	cmp	r2, r3
	bcc	.L209
.L208:
	.loc 1 1871 16
	ldr	r3, [sp, #24]
	cmp	r3, #8
	bne	.L210
	.loc 1 1871 25 discriminator 2
	ldrb	r3, [sp, #30]	@ zero_extendqisi2
	cmp	r3, #46
	beq	.L211
.L210:
	.loc 1 1871 45 discriminator 3
	movs	r3, #6
	b	.L204
.L211:
	.loc 1 1872 15
	movs	r3, #8
	str	r3, [sp, #16]
	.loc 1 1872 23
	movs	r3, #11
	str	r3, [sp, #24]
	.loc 1 1873 15
	ldrb	r3, [sp, #31]
	lsls	r3, r3, #2
	strb	r3, [sp, #31]
	.loc 1 1873 13
	b	.L212
.L209:
	.loc 1 1875 15
	ldrsb	r3, [sp, #30]
	.loc 1 1875 12
	cmp	r3, #0
	bge	.L213
	.loc 1 1876 15
	ldrb	r3, [sp, #31]
	orr	r3, r3, #3
	strb	r3, [sp, #31]
	.loc 1 1878 25
	ldrb	r3, [sp, #30]	@ zero_extendqisi2
	subs	r3, r3, #128
	.loc 1 1878 15
	ldr	r2, .L224
	ldrb	r3, [r2, r3]
	strb	r3, [sp, #30]
.L213:
	.loc 1 1892 17
	ldrb	r3, [sp, #30]	@ zero_extendqisi2
	mov	r1, r3
	ldr	r0, .L224+4
	bl	chk_chr
	mov	r3, r0
	.loc 1 1892 16
	cmp	r3, #0
	beq	.L214
	.loc 1 1893 24
	movs	r3, #6
	b	.L204
.L214:
	.loc 1 1894 16
	ldrb	r3, [sp, #30]	@ zero_extendqisi2
	cmp	r3, #64
	bls	.L215
	.loc 1 1894 17 discriminator 1
	ldrb	r3, [sp, #30]	@ zero_extendqisi2
	cmp	r3, #90
	bhi	.L215
	.loc 1 1895 19
	ldrb	r3, [sp, #31]
	orr	r3, r3, #2
	strb	r3, [sp, #31]
	b	.L216
.L215:
	.loc 1 1897 20
	ldrb	r3, [sp, #30]	@ zero_extendqisi2
	cmp	r3, #96
	bls	.L216
	.loc 1 1897 21 discriminator 1
	ldrb	r3, [sp, #30]	@ zero_extendqisi2
	cmp	r3, #122
	bhi	.L216
	.loc 1 1898 23
	ldrb	r3, [sp, #31]
	orr	r3, r3, #1
	strb	r3, [sp, #31]
	.loc 1 1898 31
	ldrb	r3, [sp, #30]
	subs	r3, r3, #32
	strb	r3, [sp, #30]
.L216:
	.loc 1 1901 18
	ldr	r3, [sp, #16]
	adds	r2, r3, #1
	str	r2, [sp, #16]
	.loc 1 1901 16
	ldr	r2, [sp, #8]
	add	r3, r3, r2
	.loc 1 1901 22
	ldrb	r2, [sp, #30]
	strb	r2, [r3]
.L212:
	.loc 1 1868 11
	b	.L200
.L207:
	.loc 1 1904 13
	ldr	r2, [sp, #12]
	ldr	r3, [sp, #20]
	add	r2, r2, r3
	.loc 1 1904 11
	ldr	r3, [sp]
	str	r2, [r3]
	.loc 1 1905 7
	ldrb	r3, [sp, #30]	@ zero_extendqisi2
	cmp	r3, #32
	bhi	.L217
	.loc 1 1905 7 is_stmt 0 discriminator 1
	movs	r3, #4
	b	.L218
.L217:
	.loc 1 1905 7 discriminator 2
	movs	r3, #0
.L218:
	.loc 1 1905 7 discriminator 4
	strb	r3, [sp, #30]
	.loc 1 1907 8 is_stmt 1 discriminator 4
	ldr	r3, [sp, #16]
	cmp	r3, #0
	bne	.L219
	.loc 1 1907 20 discriminator 1
	movs	r3, #6
	b	.L204
.L219:
	.loc 1 1908 12
	ldr	r3, [sp, #8]
	ldrb	r3, [r3]	@ zero_extendqisi2
	.loc 1 1908 8
	cmp	r3, #229
	bne	.L220
	.loc 1 1908 32 discriminator 1
	ldr	r3, [sp, #8]
	movs	r2, #5
	strb	r2, [r3]
.L220:
	.loc 1 1910 8
	ldr	r3, [sp, #24]
	cmp	r3, #8
	bne	.L221
	.loc 1 1910 20 discriminator 1
	ldrb	r3, [sp, #31]
	lsls	r3, r3, #2
	strb	r3, [sp, #31]
.L221:
	.loc 1 1911 12
	ldrb	r3, [sp, #31]	@ zero_extendqisi2
	and	r3, r3, #3
	.loc 1 1911 8
	cmp	r3, #1
	bne	.L222
	.loc 1 1911 31 discriminator 1
	ldrb	r3, [sp, #30]
	orr	r3, r3, #16
	strb	r3, [sp, #30]
.L222:
	.loc 1 1912 12
	ldrb	r3, [sp, #31]	@ zero_extendqisi2
	and	r3, r3, #12
	.loc 1 1912 8
	cmp	r3, #4
	bne	.L223
	.loc 1 1912 31 discriminator 1
	ldrb	r3, [sp, #30]
	orr	r3, r3, #8
	strb	r3, [sp, #30]
.L223:
	.loc 1 1914 8
	ldr	r3, [sp, #8]
	adds	r3, r3, #11
	.loc 1 1914 17
	ldrb	r2, [sp, #30]
	strb	r2, [r3]
	.loc 1 1916 12
	movs	r3, #0
.L204:
	.loc 1 1918 1
	mov	r0, r3
	add	sp, sp, #36
.LCFI62:
	@ sp needed
	ldr	pc, [sp], #4
.L225:
	.align	2
.L224:
	.word	ExCvt
	.word	.LC0
.LFE23:
	.size	create_name, .-create_name
	.section	.text.follow_path,"ax",%progbits
	.align	1
	.syntax unified
	.thumb
	.thumb_func
	.fpu fpv5-d16
	.type	follow_path, %function
follow_path:
.LFB24:
	.loc 1 1929 1
	@ args = 0, pretend = 0, frame = 16
	@ frame_needed = 0, uses_anonymous_args = 0
	push	{lr}
.LCFI63:
	sub	sp, sp, #20
.LCFI64:
	str	r0, [sp, #4]
	str	r1, [sp]
	.loc 1 1934 9
	ldr	r3, [sp]
	ldrb	r3, [r3]	@ zero_extendqisi2
	.loc 1 1934 8
	cmp	r3, #47
	beq	.L227
	.loc 1 1934 25 discriminator 1
	ldr	r3, [sp]
	ldrb	r3, [r3]	@ zero_extendqisi2
	.loc 1 1934 22 discriminator 1
	cmp	r3, #92
	bne	.L228
.L227:
	.loc 1 1935 13
	ldr	r3, [sp]
	adds	r3, r3, #1
	str	r3, [sp]
	.loc 1 1935 31
	ldr	r3, [sp, #4]
	movs	r2, #0
	str	r2, [r3, #8]
	b	.L229
.L228:
	.loc 1 1937 24
	ldr	r3, [sp, #4]
	ldr	r3, [r3]
	.loc 1 1937 28
	ldr	r2, [r3, #20]
	.loc 1 1937 20
	ldr	r3, [sp, #4]
	str	r2, [r3, #8]
.L229:
	.loc 1 1945 15
	ldr	r3, [sp]
	ldrb	r3, [r3]	@ zero_extendqisi2
	.loc 1 1945 8
	cmp	r3, #31
	bhi	.L230
	.loc 1 1946 15
	movs	r1, #0
	ldr	r0, [sp, #4]
	bl	dir_sdi
	mov	r3, r0
	strb	r3, [sp, #15]
	.loc 1 1947 17
	ldr	r3, [sp, #4]
	movs	r2, #0
	str	r2, [r3, #20]
	b	.L231
.L230:
	.loc 1 1950 19
	mov	r3, sp
	mov	r1, r3
	ldr	r0, [sp, #4]
	bl	create_name
	mov	r3, r0
	strb	r3, [sp, #15]
	.loc 1 1951 16
	ldrb	r3, [sp, #15]	@ zero_extendqisi2
	cmp	r3, #0
	bne	.L241
	.loc 1 1952 19
	ldr	r0, [sp, #4]
	bl	dir_find
	mov	r3, r0
	strb	r3, [sp, #15]
	.loc 1 1953 20
	ldr	r3, [sp, #4]
	ldr	r3, [r3, #24]
	.loc 1 1953 16
	ldrb	r3, [r3, #11]
	strb	r3, [sp, #14]
	.loc 1 1954 16
	ldrb	r3, [sp, #15]	@ zero_extendqisi2
	cmp	r3, #0
	beq	.L233
	.loc 1 1955 20
	ldrb	r3, [sp, #15]	@ zero_extendqisi2
	cmp	r3, #4
	bne	.L242
	.loc 1 1956 42
	ldrb	r3, [sp, #14]	@ zero_extendqisi2
	and	r3, r3, #32
	.loc 1 1956 24
	cmp	r3, #0
	beq	.L235
	.loc 1 1957 36
	ldr	r3, [sp, #4]
	movs	r2, #0
	str	r2, [r3, #8]
	.loc 1 1957 49
	ldr	r3, [sp, #4]
	movs	r2, #0
	str	r2, [r3, #20]
	.loc 1 1958 34
	ldrb	r3, [sp, #14]	@ zero_extendqisi2
	and	r3, r3, #4
	.loc 1 1958 28
	cmp	r3, #0
	beq	.L243
	.loc 1 1959 29
	movs	r3, #0
	strb	r3, [sp, #15]
	.loc 1 1964 17
	b	.L242
.L235:
	.loc 1 1961 34
	ldrb	r3, [sp, #14]	@ zero_extendqisi2
	and	r3, r3, #4
	.loc 1 1961 28
	cmp	r3, #0
	bne	.L242
	.loc 1 1961 50 discriminator 1
	movs	r3, #5
	strb	r3, [sp, #15]
	.loc 1 1964 17 discriminator 1
	b	.L242
.L233:
	.loc 1 1966 20
	ldrb	r3, [sp, #14]	@ zero_extendqisi2
	and	r3, r3, #4
	.loc 1 1966 16
	cmp	r3, #0
	bne	.L244
	.loc 1 1967 17
	ldr	r3, [sp, #4]
	ldr	r3, [r3, #20]
	str	r3, [sp, #8]
	.loc 1 1968 22
	ldr	r3, [sp, #8]
	adds	r3, r3, #11
	ldrb	r3, [r3]	@ zero_extendqisi2
	.loc 1 1968 33
	and	r3, r3, #16
	.loc 1 1968 16
	cmp	r3, #0
	bne	.L239
	.loc 1 1969 21
	movs	r3, #5
	strb	r3, [sp, #15]
	.loc 1 1969 17
	b	.L231
.L239:
	.loc 1 1971 26
	ldr	r3, [sp, #4]
	ldr	r3, [r3]
	ldr	r1, [sp, #8]
	mov	r0, r3
	bl	ld_clust
	mov	r2, r0
	.loc 1 1971 24
	ldr	r3, [sp, #4]
	str	r2, [r3, #8]
	b	.L230
.L243:
	.loc 1 1958 25
	nop
	.loc 1 1950 17
	b	.L230
.L241:
	.loc 1 1951 13
	nop
	b	.L231
.L242:
	.loc 1 1964 17
	nop
	b	.L231
.L244:
	.loc 1 1966 13
	nop
.L231:
	.loc 1 1975 12
	ldrb	r3, [sp, #15]	@ zero_extendqisi2
	.loc 1 1976 1
	mov	r0, r3
	add	sp, sp, #20
.LCFI65:
	@ sp needed
	ldr	pc, [sp], #4
.LFE24:
	.size	follow_path, .-follow_path
	.section	.text.get_ldnumber,"ax",%progbits
	.align	1
	.syntax unified
	.thumb
	.thumb_func
	.fpu fpv5-d16
	.type	get_ldnumber, %function
get_ldnumber:
.LFB25:
	.loc 1 1986 1
	@ args = 0, pretend = 0, frame = 24
	@ frame_needed = 0, uses_anonymous_args = 0
	@ link register save eliminated.
	sub	sp, sp, #24
.LCFI66:
	str	r0, [sp, #4]
	.loc 1 1989 9
	mov	r3, #-1
	str	r3, [sp, #16]
	.loc 1 1997 9
	ldr	r3, [sp, #4]
	ldr	r3, [r3]
	.loc 1 1997 8
	cmp	r3, #0
	beq	.L246
	.loc 1 1998 17
	ldr	r3, [sp, #4]
	ldr	r3, [r3]
	str	r3, [sp, #20]
	.loc 1 1998 9
	b	.L247
.L249:
	.loc 1 1998 79 discriminator 4
	ldr	r3, [sp, #20]
	adds	r3, r3, #1
	str	r3, [sp, #20]
.L247:
	.loc 1 1998 32 discriminator 1
	ldr	r3, [sp, #20]
	ldrb	r3, [r3]	@ zero_extendqisi2
	.loc 1 1998 9 discriminator 1
	cmp	r3, #32
	bls	.L248
	.loc 1 1998 65 discriminator 3
	ldr	r3, [sp, #20]
	ldrb	r3, [r3]	@ zero_extendqisi2
	.loc 1 1998 62 discriminator 3
	cmp	r3, #58
	bne	.L249
.L248:
	.loc 1 1999 13
	ldr	r3, [sp, #20]
	ldrb	r3, [r3]	@ zero_extendqisi2
	.loc 1 1999 12
	cmp	r3, #58
	bne	.L250
	.loc 1 2000 16
	ldr	r3, [sp, #4]
	ldr	r3, [r3]
	str	r3, [sp, #12]
	.loc 1 2001 20
	ldr	r3, [sp, #12]
	adds	r2, r3, #1
	str	r2, [sp, #12]
	.loc 1 2001 17
	ldrb	r3, [r3]	@ zero_extendqisi2
	.loc 1 2001 23
	subs	r3, r3, #48
	.loc 1 2001 15
	str	r3, [sp, #8]
	.loc 1 2002 16
	ldr	r3, [sp, #8]
	cmp	r3, #9
	bhi	.L251
	.loc 1 2002 24 discriminator 1
	ldr	r2, [sp, #12]
	ldr	r3, [sp, #20]
	cmp	r2, r3
	bne	.L251
	.loc 1 2003 20
	ldr	r3, [sp, #8]
	cmp	r3, #4
	bhi	.L251
	.loc 1 2004 25
	ldr	r3, [sp, #8]
	str	r3, [sp, #16]
	.loc 1 2005 27
	ldr	r3, [sp, #20]
	adds	r3, r3, #1
	str	r3, [sp, #20]
	ldr	r3, [sp, #4]
	ldr	r2, [sp, #20]
	str	r2, [r3]
.L251:
	.loc 1 2024 20
	ldr	r3, [sp, #16]
	b	.L252
.L250:
	.loc 1 2027 13
	ldr	r3, .L253
	ldrb	r3, [r3]	@ zero_extendqisi2
	str	r3, [sp, #16]
.L246:
	.loc 1 2032 12
	ldr	r3, [sp, #16]
.L252:
	.loc 1 2033 1
	mov	r0, r3
	add	sp, sp, #24
.LCFI67:
	@ sp needed
	bx	lr
.L254:
	.align	2
.L253:
	.word	CurrVol
.LFE25:
	.size	get_ldnumber, .-get_ldnumber
	.section	.text.check_fs,"ax",%progbits
	.align	1
	.syntax unified
	.thumb
	.thumb_func
	.fpu fpv5-d16
	.type	check_fs, %function
check_fs:
.LFB26:
	.loc 1 2044 1
	@ args = 0, pretend = 0, frame = 8
	@ frame_needed = 0, uses_anonymous_args = 0
	push	{lr}
.LCFI68:
	sub	sp, sp, #12
.LCFI69:
	str	r0, [sp, #4]
	str	r1, [sp]
	.loc 1 2045 15
	ldr	r3, [sp, #4]
	movs	r2, #0
	strb	r2, [r3, #4]
	.loc 1 2045 32
	ldr	r3, [sp, #4]
	mov	r2, #-1
	str	r2, [r3, #48]
	.loc 1 2046 9
	ldr	r1, [sp]
	ldr	r0, [sp, #4]
	bl	move_window
	mov	r3, r0
	.loc 1 2046 8
	cmp	r3, #0
	beq	.L256
	.loc 1 2047 16
	movs	r3, #3
	b	.L257
.L256:
	.loc 1 2049 9
	ldr	r3, [sp, #4]
	addw	r3, r3, #562
	adds	r3, r3, #1
	ldrb	r3, [r3]	@ zero_extendqisi2
	lsls	r3, r3, #8
	sxth	r2, r3
	ldr	r3, [sp, #4]
	ldrb	r3, [r3, #562]	@ zero_extendqisi2
	sxth	r3, r3
	orrs	r3, r3, r2
	sxth	r3, r3
	.loc 1 2049 8
	ldr	r2, .L261
	cmp	r3, r2
	beq	.L258
	.loc 1 2050 16
	movs	r3, #2
	b	.L257
.L258:
	.loc 1 2052 10
	ldr	r3, [sp, #4]
	adds	r3, r3, #106
	adds	r3, r3, #3
	ldrb	r3, [r3]	@ zero_extendqisi2
	lsls	r2, r3, #24
	ldr	r3, [sp, #4]
	adds	r3, r3, #106
	adds	r3, r3, #2
	ldrb	r3, [r3]	@ zero_extendqisi2
	lsls	r3, r3, #16
	orrs	r3, r3, r2
	ldr	r2, [sp, #4]
	adds	r2, r2, #106
	adds	r2, r2, #1
	ldrb	r2, [r2]	@ zero_extendqisi2
	lsls	r2, r2, #8
	orrs	r3, r3, r2
	ldr	r2, [sp, #4]
	ldrb	r2, [r2, #106]	@ zero_extendqisi2
	orrs	r3, r3, r2
	.loc 1 2052 44
	bic	r3, r3, #-16777216
	.loc 1 2052 8
	ldr	r2, .L261+4
	cmp	r3, r2
	bne	.L259
	.loc 1 2053 16
	movs	r3, #0
	b	.L257
.L259:
	.loc 1 2054 10
	ldr	r3, [sp, #4]
	adds	r3, r3, #134
	adds	r3, r3, #3
	ldrb	r3, [r3]	@ zero_extendqisi2
	lsls	r2, r3, #24
	ldr	r3, [sp, #4]
	adds	r3, r3, #134
	adds	r3, r3, #2
	ldrb	r3, [r3]	@ zero_extendqisi2
	lsls	r3, r3, #16
	orrs	r3, r3, r2
	ldr	r2, [sp, #4]
	adds	r2, r2, #134
	adds	r2, r2, #1
	ldrb	r2, [r2]	@ zero_extendqisi2
	lsls	r2, r2, #8
	orrs	r3, r3, r2
	ldr	r2, [sp, #4]
	ldrb	r2, [r2, #134]	@ zero_extendqisi2
	orrs	r3, r3, r2
	.loc 1 2054 46
	bic	r3, r3, #-16777216
	.loc 1 2054 8
	ldr	r2, .L261+4
	cmp	r3, r2
	bne	.L260
	.loc 1 2055 16
	movs	r3, #0
	b	.L257
.L260:
	.loc 1 2057 12
	movs	r3, #1
.L257:
	.loc 1 2058 1
	mov	r0, r3
	add	sp, sp, #12
.LCFI70:
	@ sp needed
	ldr	pc, [sp], #4
.L262:
	.align	2
.L261:
	.word	-21931
	.word	5521734
.LFE26:
	.size	check_fs, .-check_fs
	.section	.text.find_volume,"ax",%progbits
	.align	1
	.syntax unified
	.thumb
	.thumb_func
	.fpu fpv5-d16
	.type	find_volume, %function
find_volume:
.LFB27:
	.loc 1 2070 1
	@ args = 0, pretend = 0, frame = 88
	@ frame_needed = 0, uses_anonymous_args = 0
	push	{lr}
.LCFI71:
	sub	sp, sp, #92
.LCFI72:
	str	r0, [sp, #12]
	str	r1, [sp, #8]
	mov	r3, r2
	strb	r3, [sp, #7]
	.loc 1 2080 10
	ldr	r3, [sp, #12]
	movs	r2, #0
	str	r2, [r3]
	.loc 1 2081 11
	ldr	r0, [sp, #8]
	bl	get_ldnumber
	str	r0, [sp, #60]
	.loc 1 2082 8
	ldr	r3, [sp, #60]
	cmp	r3, #0
	bge	.L264
	.loc 1 2082 25 discriminator 1
	movs	r3, #11
	b	.L302
.L264:
	.loc 1 2085 8
	ldr	r2, .L303
	ldr	r3, [sp, #60]
	ldr	r3, [r2, r3, lsl #2]
	str	r3, [sp, #56]
	.loc 1 2086 8
	ldr	r3, [sp, #56]
	cmp	r3, #0
	bne	.L266
	.loc 1 2086 21 discriminator 1
	movs	r3, #12
	b	.L302
.L266:
	.loc 1 2089 10
	ldr	r3, [sp, #12]
	ldr	r2, [sp, #56]
	str	r2, [r3]
	.loc 1 2091 11
	ldr	r3, [sp, #56]
	ldrb	r3, [r3]	@ zero_extendqisi2
	.loc 1 2091 8
	cmp	r3, #0
	beq	.L267
	.loc 1 2092 16
	ldr	r3, [sp, #56]
	ldrb	r3, [r3, #1]	@ zero_extendqisi2
	mov	r0, r3
	bl	disk_status
	mov	r3, r0
	strb	r3, [sp, #55]
	.loc 1 2093 20
	ldrb	r3, [sp, #55]	@ zero_extendqisi2
	and	r3, r3, #1
	.loc 1 2093 12
	cmp	r3, #0
	bne	.L267
	.loc 1 2094 16
	ldrb	r3, [sp, #7]	@ zero_extendqisi2
	cmp	r3, #0
	beq	.L268
	.loc 1 2094 49 discriminator 1
	ldrb	r3, [sp, #55]	@ zero_extendqisi2
	and	r3, r3, #4
	.loc 1 2094 40 discriminator 1
	cmp	r3, #0
	beq	.L268
	.loc 1 2095 24
	movs	r3, #10
	b	.L302
.L268:
	.loc 1 2096 20
	movs	r3, #0
	b	.L302
.L267:
	.loc 1 2103 17
	ldr	r3, [sp, #56]
	movs	r2, #0
	strb	r2, [r3]
	.loc 1 2104 15
	ldr	r3, [sp, #60]
	uxtb	r2, r3
	.loc 1 2104 13
	ldr	r3, [sp, #56]
	strb	r2, [r3, #1]
	.loc 1 2105 12
	ldr	r3, [sp, #56]
	ldrb	r3, [r3, #1]	@ zero_extendqisi2
	mov	r0, r3
	bl	disk_initialize
	mov	r3, r0
	strb	r3, [sp, #55]
	.loc 1 2106 14
	ldrb	r3, [sp, #55]	@ zero_extendqisi2
	and	r3, r3, #1
	.loc 1 2106 8
	cmp	r3, #0
	beq	.L269
	.loc 1 2107 16
	movs	r3, #3
	b	.L302
.L269:
	.loc 1 2108 8
	ldrb	r3, [sp, #7]	@ zero_extendqisi2
	cmp	r3, #0
	beq	.L270
	.loc 1 2108 41 discriminator 1
	ldrb	r3, [sp, #55]	@ zero_extendqisi2
	and	r3, r3, #4
	.loc 1 2108 32 discriminator 1
	cmp	r3, #0
	beq	.L270
	.loc 1 2109 16
	movs	r3, #10
	b	.L302
.L270:
	.loc 1 2115 11
	movs	r3, #0
	str	r3, [sp, #80]
	.loc 1 2116 11
	ldr	r1, [sp, #80]
	ldr	r0, [sp, #56]
	bl	check_fs
	mov	r3, r0
	strb	r3, [sp, #87]
	.loc 1 2117 8
	ldrb	r3, [sp, #87]	@ zero_extendqisi2
	cmp	r3, #1
	bne	.L271
	.loc 1 2118 16
	movs	r3, #0
	str	r3, [sp, #64]
	.loc 1 2118 9
	b	.L272
.L275:
	.loc 1 2119 18
	ldr	r3, [sp, #56]
	add	r2, r3, #52
	.loc 1 2119 42
	ldr	r3, [sp, #64]
	lsls	r3, r3, #4
	.loc 1 2119 38
	add	r3, r3, #446
	.loc 1 2119 16
	add	r3, r3, r2
	str	r3, [sp, #48]
	.loc 1 2120 23
	ldr	r3, [sp, #48]
	adds	r3, r3, #4
	ldrb	r3, [r3]	@ zero_extendqisi2
	.loc 1 2120 46
	cmp	r3, #0
	beq	.L273
	.loc 1 2120 29 discriminator 1
	ldr	r3, [sp, #48]
	adds	r3, r3, #11
	ldrb	r3, [r3]	@ zero_extendqisi2
	lsls	r2, r3, #24
	ldr	r3, [sp, #48]
	adds	r3, r3, #10
	ldrb	r3, [r3]	@ zero_extendqisi2
	lsls	r3, r3, #16
	orrs	r3, r3, r2
	ldr	r2, [sp, #48]
	adds	r2, r2, #9
	ldrb	r2, [r2]	@ zero_extendqisi2
	lsls	r2, r2, #8
	orrs	r3, r3, r2
	ldr	r2, [sp, #48]
	adds	r2, r2, #8
	ldrb	r2, [r2]	@ zero_extendqisi2
	.loc 1 2120 46 discriminator 1
	orrs	r2, r2, r3
	b	.L274
.L273:
	.loc 1 2120 46 is_stmt 0 discriminator 2
	movs	r2, #0
.L274:
	.loc 1 2120 19 is_stmt 1 discriminator 4
	ldr	r3, [sp, #64]
	lsls	r3, r3, #2
	add	r1, sp, #88
	add	r3, r3, r1
	str	r2, [r3, #-68]
	.loc 1 2118 29 discriminator 4
	ldr	r3, [sp, #64]
	adds	r3, r3, #1
	str	r3, [sp, #64]
.L272:
	.loc 1 2118 9 discriminator 2
	ldr	r3, [sp, #64]
	cmp	r3, #3
	bls	.L275
	.loc 1 2122 11
	movs	r3, #0
	str	r3, [sp, #64]
	.loc 1 2123 12
	ldr	r3, [sp, #64]
	cmp	r3, #0
	beq	.L279
	.loc 1 2123 17 discriminator 1
	ldr	r3, [sp, #64]
	subs	r3, r3, #1
	str	r3, [sp, #64]
.L279:
	.loc 1 2125 19
	ldr	r3, [sp, #64]
	lsls	r3, r3, #2
	add	r2, sp, #88
	add	r3, r3, r2
	ldr	r3, [r3, #-68]
	str	r3, [sp, #80]
	.loc 1 2126 17
	ldr	r3, [sp, #80]
	cmp	r3, #0
	beq	.L277
	.loc 1 2126 27 discriminator 1
	ldr	r1, [sp, #80]
	ldr	r0, [sp, #56]
	bl	check_fs
	mov	r3, r0
	b	.L278
.L277:
	.loc 1 2126 17 discriminator 2
	movs	r3, #2
.L278:
	.loc 1 2126 17 is_stmt 0 discriminator 4
	strb	r3, [sp, #87]
	.loc 1 2127 9 is_stmt 1 discriminator 4
	ldrb	r3, [sp, #87]	@ zero_extendqisi2
	cmp	r3, #0
	beq	.L271
	.loc 1 2127 37 discriminator 1
	ldr	r3, [sp, #64]
	adds	r3, r3, #1
	str	r3, [sp, #64]
	ldr	r3, [sp, #64]
	cmp	r3, #3
	bls	.L279
.L271:
	.loc 1 2129 8
	ldrb	r3, [sp, #87]	@ zero_extendqisi2
	cmp	r3, #3
	bne	.L280
	.loc 1 2129 26 discriminator 1
	movs	r3, #1
	b	.L302
.L280:
	.loc 1 2130 8
	ldrb	r3, [sp, #87]	@ zero_extendqisi2
	cmp	r3, #0
	beq	.L281
	.loc 1 2130 21 discriminator 1
	movs	r3, #13
	b	.L302
.L281:
	.loc 1 2134 9
	ldr	r3, [sp, #56]
	ldrb	r3, [r3, #64]	@ zero_extendqisi2
	lsls	r3, r3, #8
	sxth	r2, r3
	ldr	r3, [sp, #56]
	ldrb	r3, [r3, #63]	@ zero_extendqisi2
	sxth	r3, r3
	orrs	r3, r3, r2
	sxth	r3, r3
	.loc 1 2134 8
	cmp	r3, #512
	beq	.L282
	.loc 1 2135 16
	movs	r3, #13
	b	.L302
.L282:
	.loc 1 2137 14
	ldr	r3, [sp, #56]
	ldrb	r3, [r3, #75]	@ zero_extendqisi2
	lsls	r3, r3, #8
	sxth	r2, r3
	ldr	r3, [sp, #56]
	ldrb	r3, [r3, #74]	@ zero_extendqisi2
	sxth	r3, r3
	orrs	r3, r3, r2
	sxth	r3, r3
	uxth	r3, r3
	.loc 1 2137 12
	str	r3, [sp, #76]
	.loc 1 2138 8
	ldr	r3, [sp, #76]
	cmp	r3, #0
	bne	.L283
	.loc 1 2138 27 discriminator 1
	ldr	r3, [sp, #56]
	ldrb	r3, [r3, #91]	@ zero_extendqisi2
	lsls	r2, r3, #24
	ldr	r3, [sp, #56]
	ldrb	r3, [r3, #90]	@ zero_extendqisi2
	lsls	r3, r3, #16
	orrs	r3, r3, r2
	ldr	r2, [sp, #56]
	ldrb	r2, [r2, #89]	@ zero_extendqisi2
	lsls	r2, r2, #8
	orrs	r3, r3, r2
	ldr	r2, [sp, #56]
	ldrb	r2, [r2, #88]	@ zero_extendqisi2
	.loc 1 2138 25 discriminator 1
	orrs	r3, r3, r2
	str	r3, [sp, #76]
.L283:
	.loc 1 2139 15
	ldr	r3, [sp, #56]
	ldr	r2, [sp, #76]
	str	r2, [r3, #28]
	.loc 1 2141 25
	ldr	r3, [sp, #56]
	ldrb	r2, [r3, #68]	@ zero_extendqisi2
	.loc 1 2141 16
	ldr	r3, [sp, #56]
	strb	r2, [r3, #3]
	.loc 1 2142 11
	ldr	r3, [sp, #56]
	ldrb	r3, [r3, #3]	@ zero_extendqisi2
	.loc 1 2142 8
	cmp	r3, #1
	beq	.L284
	.loc 1 2142 30 discriminator 1
	ldr	r3, [sp, #56]
	ldrb	r3, [r3, #3]	@ zero_extendqisi2
	.loc 1 2142 25 discriminator 1
	cmp	r3, #2
	beq	.L284
	.loc 1 2143 16
	movs	r3, #13
	b	.L302
.L284:
	.loc 1 2144 17
	ldr	r3, [sp, #56]
	ldrb	r3, [r3, #3]	@ zero_extendqisi2
	mov	r2, r3
	.loc 1 2144 12
	ldr	r3, [sp, #76]
	mul	r3, r2, r3
	str	r3, [sp, #76]
	.loc 1 2146 24
	ldr	r3, [sp, #56]
	ldrb	r2, [r3, #65]	@ zero_extendqisi2
	.loc 1 2146 15
	ldr	r3, [sp, #56]
	strb	r2, [r3, #2]
	.loc 1 2147 12
	ldr	r3, [sp, #56]
	ldrb	r3, [r3, #2]	@ zero_extendqisi2
	.loc 1 2147 8
	cmp	r3, #0
	beq	.L285
	.loc 1 2147 26 discriminator 1
	ldr	r3, [sp, #56]
	ldrb	r3, [r3, #2]	@ zero_extendqisi2
	mov	r2, r3
	.loc 1 2147 39 discriminator 1
	ldr	r3, [sp, #56]
	ldrb	r3, [r3, #2]	@ zero_extendqisi2
	.loc 1 2147 47 discriminator 1
	subs	r3, r3, #1
	.loc 1 2147 34 discriminator 1
	ands	r3, r3, r2
	.loc 1 2147 20 discriminator 1
	cmp	r3, #0
	beq	.L286
.L285:
	.loc 1 2148 16
	movs	r3, #13
	b	.L302
.L286:
	.loc 1 2150 21
	ldr	r3, [sp, #56]
	ldrb	r3, [r3, #70]	@ zero_extendqisi2
	lsls	r3, r3, #8
	sxth	r2, r3
	ldr	r3, [sp, #56]
	ldrb	r3, [r3, #69]	@ zero_extendqisi2
	sxth	r3, r3
	orrs	r3, r3, r2
	sxth	r3, r3
	uxth	r2, r3
	.loc 1 2150 19
	ldr	r3, [sp, #56]
	strh	r2, [r3, #8]	@ movhi
	.loc 1 2151 11
	ldr	r3, [sp, #56]
	ldrh	r3, [r3, #8]
	.loc 1 2151 9
	and	r3, r3, #15
	uxth	r3, r3
	.loc 1 2151 8
	cmp	r3, #0
	beq	.L287
	.loc 1 2152 16
	movs	r3, #13
	b	.L302
.L304:
	.align	2
.L303:
	.word	FatFs
.L287:
	.loc 1 2154 13
	ldr	r3, [sp, #56]
	ldrb	r3, [r3, #72]	@ zero_extendqisi2
	lsls	r3, r3, #8
	sxth	r2, r3
	ldr	r3, [sp, #56]
	ldrb	r3, [r3, #71]	@ zero_extendqisi2
	sxth	r3, r3
	orrs	r3, r3, r2
	sxth	r3, r3
	uxth	r3, r3
	.loc 1 2154 11
	str	r3, [sp, #72]
	.loc 1 2155 8
	ldr	r3, [sp, #72]
	cmp	r3, #0
	bne	.L288
	.loc 1 2155 25 discriminator 1
	ldr	r3, [sp, #56]
	ldrb	r3, [r3, #87]	@ zero_extendqisi2
	lsls	r2, r3, #24
	ldr	r3, [sp, #56]
	ldrb	r3, [r3, #86]	@ zero_extendqisi2
	lsls	r3, r3, #16
	orrs	r3, r3, r2
	ldr	r2, [sp, #56]
	ldrb	r2, [r2, #85]	@ zero_extendqisi2
	lsls	r2, r2, #8
	orrs	r3, r3, r2
	ldr	r2, [sp, #56]
	ldrb	r2, [r2, #84]	@ zero_extendqisi2
	.loc 1 2155 23 discriminator 1
	orrs	r3, r3, r2
	str	r3, [sp, #72]
.L288:
	.loc 1 2157 12
	ldr	r3, [sp, #56]
	ldrb	r3, [r3, #67]	@ zero_extendqisi2
	lsls	r3, r3, #8
	sxth	r2, r3
	ldr	r3, [sp, #56]
	ldrb	r3, [r3, #66]	@ zero_extendqisi2
	sxth	r3, r3
	orrs	r3, r3, r2
	sxth	r3, r3
	.loc 1 2157 10
	strh	r3, [sp, #46]	@ movhi
	.loc 1 2158 8
	ldrh	r3, [sp, #46]
	cmp	r3, #0
	bne	.L289
	.loc 1 2158 23 discriminator 1
	movs	r3, #13
	b	.L302
.L289:
	.loc 1 2161 19
	ldrh	r2, [sp, #46]
	ldr	r3, [sp, #76]
	add	r3, r3, r2
	.loc 1 2161 32
	ldr	r2, [sp, #56]
	ldrh	r2, [r2, #8]
	.loc 1 2161 44
	lsrs	r2, r2, #4
	uxth	r2, r2
	.loc 1 2161 12
	add	r3, r3, r2
	str	r3, [sp, #40]
	.loc 1 2162 8
	ldr	r2, [sp, #72]
	ldr	r3, [sp, #40]
	cmp	r2, r3
	bcs	.L290
	.loc 1 2162 32 discriminator 1
	movs	r3, #13
	b	.L302
.L290:
	.loc 1 2163 20
	ldr	r2, [sp, #72]
	ldr	r3, [sp, #40]
	subs	r3, r2, r3
	.loc 1 2163 34
	ldr	r2, [sp, #56]
	ldrb	r2, [r2, #2]	@ zero_extendqisi2
	.loc 1 2163 11
	udiv	r3, r3, r2
	str	r3, [sp, #36]
	.loc 1 2164 8
	ldr	r3, [sp, #36]
	cmp	r3, #0
	bne	.L291
	.loc 1 2164 24 discriminator 1
	movs	r3, #13
	b	.L302
.L291:
	.loc 1 2165 9
	movs	r3, #1
	strb	r3, [sp, #87]
	.loc 1 2166 8
	ldr	r3, [sp, #36]
	movw	r2, #4085
	cmp	r3, r2
	bls	.L292
	.loc 1 2166 33 discriminator 1
	movs	r3, #2
	strb	r3, [sp, #87]
.L292:
	.loc 1 2167 8
	ldr	r3, [sp, #36]
	movw	r2, #65525
	cmp	r3, r2
	bls	.L293
	.loc 1 2167 33 discriminator 1
	movs	r3, #3
	strb	r3, [sp, #87]
.L293:
	.loc 1 2170 26
	ldr	r3, [sp, #36]
	adds	r2, r3, #2
	.loc 1 2170 18
	ldr	r3, [sp, #56]
	str	r2, [r3, #24]
	.loc 1 2171 17
	ldr	r3, [sp, #56]
	ldr	r2, [sp, #80]
	str	r2, [r3, #32]
	.loc 1 2172 25
	ldrh	r2, [sp, #46]
	ldr	r3, [sp, #80]
	add	r2, r2, r3
	.loc 1 2172 17
	ldr	r3, [sp, #56]
	str	r2, [r3, #36]
	.loc 1 2173 26
	ldr	r2, [sp, #80]
	ldr	r3, [sp, #40]
	add	r2, r2, r3
	.loc 1 2173 18
	ldr	r3, [sp, #56]
	str	r2, [r3, #44]
	.loc 1 2174 8
	ldrb	r3, [sp, #87]	@ zero_extendqisi2
	cmp	r3, #3
	bne	.L294
	.loc 1 2175 15
	ldr	r3, [sp, #56]
	ldrh	r3, [r3, #8]
	.loc 1 2175 12
	cmp	r3, #0
	beq	.L295
	.loc 1 2175 35 discriminator 1
	movs	r3, #13
	b	.L302
.L295:
	.loc 1 2176 23
	ldr	r3, [sp, #56]
	ldrb	r3, [r3, #99]	@ zero_extendqisi2
	lsls	r2, r3, #24
	ldr	r3, [sp, #56]
	ldrb	r3, [r3, #98]	@ zero_extendqisi2
	lsls	r3, r3, #16
	orrs	r3, r3, r2
	ldr	r2, [sp, #56]
	ldrb	r2, [r2, #97]	@ zero_extendqisi2
	lsls	r2, r2, #8
	orrs	r3, r3, r2
	ldr	r2, [sp, #56]
	ldrb	r2, [r2, #96]	@ zero_extendqisi2
	orrs	r2, r2, r3
	.loc 1 2176 21
	ldr	r3, [sp, #56]
	str	r2, [r3, #40]
	.loc 1 2177 20
	ldr	r3, [sp, #56]
	ldr	r3, [r3, #24]
	.loc 1 2177 16
	lsls	r3, r3, #2
	str	r3, [sp, #68]
	b	.L296
.L294:
	.loc 1 2179 16
	ldr	r3, [sp, #56]
	ldrh	r3, [r3, #8]
	.loc 1 2179 12
	cmp	r3, #0
	bne	.L297
	.loc 1 2179 39 discriminator 1
	movs	r3, #13
	b	.L302
.L297:
	.loc 1 2180 25
	ldr	r3, [sp, #56]
	ldr	r2, [r3, #36]
	.loc 1 2180 35
	ldr	r3, [sp, #76]
	add	r2, r2, r3
	.loc 1 2180 21
	ldr	r3, [sp, #56]
	str	r2, [r3, #40]
	.loc 1 2182 30
	ldrb	r3, [sp, #87]	@ zero_extendqisi2
	cmp	r3, #2
	bne	.L298
	.loc 1 2182 15 discriminator 1
	ldr	r3, [sp, #56]
	ldr	r3, [r3, #24]
	.loc 1 2182 30 discriminator 1
	lsls	r3, r3, #1
	b	.L299
.L298:
	.loc 1 2182 34 discriminator 2
	ldr	r3, [sp, #56]
	ldr	r2, [r3, #24]
	.loc 1 2182 45 discriminator 2
	mov	r3, r2
	lsls	r3, r3, #1
	add	r3, r3, r2
	.loc 1 2182 49 discriminator 2
	lsrs	r2, r3, #1
	.loc 1 2182 58 discriminator 2
	ldr	r3, [sp, #56]
	ldr	r3, [r3, #24]
	.loc 1 2182 69 discriminator 2
	and	r3, r3, #1
	.loc 1 2182 30 discriminator 2
	add	r3, r3, r2
.L299:
	.loc 1 2181 16
	str	r3, [sp, #68]
.L296:
	.loc 1 2184 11
	ldr	r3, [sp, #56]
	ldr	r2, [r3, #28]
	.loc 1 2184 29
	ldr	r3, [sp, #68]
	addw	r3, r3, #511
	.loc 1 2184 45
	lsrs	r3, r3, #9
	.loc 1 2184 8
	cmp	r2, r3
	bcs	.L300
	.loc 1 2185 16
	movs	r3, #13
	b	.L302
.L300:
	.loc 1 2189 37
	ldr	r3, [sp, #56]
	mov	r2, #-1
	str	r2, [r3, #16]
	.loc 1 2189 24
	ldr	r3, [sp, #56]
	ldr	r2, [r3, #16]
	.loc 1 2189 20
	ldr	r3, [sp, #56]
	str	r2, [r3, #12]
	.loc 1 2192 18
	ldr	r3, [sp, #56]
	movs	r2, #128
	strb	r2, [r3, #5]
	.loc 1 2194 8
	ldrb	r3, [sp, #87]	@ zero_extendqisi2
	cmp	r3, #3
	bne	.L301
	.loc 1 2195 12
	ldr	r3, [sp, #56]
	ldrb	r3, [r3, #101]	@ zero_extendqisi2
	lsls	r3, r3, #8
	sxth	r2, r3
	ldr	r3, [sp, #56]
	ldrb	r3, [r3, #100]	@ zero_extendqisi2
	sxth	r3, r3
	orrs	r3, r3, r2
	sxth	r3, r3
	.loc 1 2195 9
	cmp	r3, #1
	bne	.L301
	.loc 1 2196 12
	ldr	r3, [sp, #80]
	adds	r3, r3, #1
	mov	r1, r3
	ldr	r0, [sp, #56]
	bl	move_window
	mov	r3, r0
	.loc 1 2196 9
	cmp	r3, #0
	bne	.L301
	.loc 1 2198 22
	ldr	r3, [sp, #56]
	movs	r2, #0
	strb	r2, [r3, #5]
	.loc 1 2199 13
	ldr	r3, [sp, #56]
	ldrb	r3, [r3, #563]	@ zero_extendqisi2
	lsls	r3, r3, #8
	sxth	r2, r3
	ldr	r3, [sp, #56]
	ldrb	r3, [r3, #562]	@ zero_extendqisi2
	sxth	r3, r3
	orrs	r3, r3, r2
	sxth	r3, r3
	.loc 1 2199 12
	ldr	r2, .L305
	cmp	r3, r2
	bne	.L301
	.loc 1 2200 16
	ldr	r3, [sp, #56]
	ldrb	r3, [r3, #55]	@ zero_extendqisi2
	lsls	r2, r3, #24
	ldr	r3, [sp, #56]
	ldrb	r3, [r3, #54]	@ zero_extendqisi2
	lsls	r3, r3, #16
	orrs	r3, r3, r2
	ldr	r2, [sp, #56]
	ldrb	r2, [r2, #53]	@ zero_extendqisi2
	lsls	r2, r2, #8
	orrs	r3, r3, r2
	ldr	r2, [sp, #56]
	ldrb	r2, [r2, #52]	@ zero_extendqisi2
	orrs	r3, r3, r2
	.loc 1 2200 13
	ldr	r2, .L305+4
	cmp	r3, r2
	bne	.L301
	.loc 1 2201 16
	ldr	r3, [sp, #56]
	ldrb	r3, [r3, #539]	@ zero_extendqisi2
	lsls	r2, r3, #24
	ldr	r3, [sp, #56]
	ldrb	r3, [r3, #538]	@ zero_extendqisi2
	lsls	r3, r3, #16
	orrs	r3, r3, r2
	ldr	r2, [sp, #56]
	ldrb	r2, [r2, #537]	@ zero_extendqisi2
	lsls	r2, r2, #8
	orrs	r3, r3, r2
	ldr	r2, [sp, #56]
	ldrb	r2, [r2, #536]	@ zero_extendqisi2
	orrs	r3, r3, r2
	.loc 1 2201 13
	ldr	r2, .L305+8
	cmp	r3, r2
	bne	.L301
	.loc 1 2204 30
	ldr	r3, [sp, #56]
	ldrb	r3, [r3, #543]	@ zero_extendqisi2
	lsls	r2, r3, #24
	ldr	r3, [sp, #56]
	ldrb	r3, [r3, #542]	@ zero_extendqisi2
	lsls	r3, r3, #16
	orrs	r3, r3, r2
	ldr	r2, [sp, #56]
	ldrb	r2, [r2, #541]	@ zero_extendqisi2
	lsls	r2, r2, #8
	orrs	r3, r3, r2
	ldr	r2, [sp, #56]
	ldrb	r2, [r2, #540]	@ zero_extendqisi2
	orrs	r2, r2, r3
	.loc 1 2204 28
	ldr	r3, [sp, #56]
	str	r2, [r3, #16]
	.loc 1 2207 30
	ldr	r3, [sp, #56]
	ldrb	r3, [r3, #547]	@ zero_extendqisi2
	lsls	r2, r3, #24
	ldr	r3, [sp, #56]
	ldrb	r3, [r3, #546]	@ zero_extendqisi2
	lsls	r3, r3, #16
	orrs	r3, r3, r2
	ldr	r2, [sp, #56]
	ldrb	r2, [r2, #545]	@ zero_extendqisi2
	lsls	r2, r2, #8
	orrs	r3, r3, r2
	ldr	r2, [sp, #56]
	ldrb	r2, [r2, #544]	@ zero_extendqisi2
	orrs	r2, r2, r3
	.loc 1 2207 28
	ldr	r3, [sp, #56]
	str	r2, [r3, #12]
.L301:
	.loc 1 2213 17
	ldr	r3, [sp, #56]
	ldrb	r2, [sp, #87]
	strb	r2, [r3]
	.loc 1 2214 14
	ldr	r3, .L305+12
	ldrh	r3, [r3]
	adds	r3, r3, #1
	uxth	r2, r3
	.loc 1 2214 12
	ldr	r3, .L305+12
	strh	r2, [r3]	@ movhi
	ldr	r3, .L305+12
	ldrh	r2, [r3]
	ldr	r3, [sp, #56]
	strh	r2, [r3, #6]	@ movhi
	.loc 1 2216 14
	ldr	r3, [sp, #56]
	movs	r2, #0
	str	r2, [r3, #20]
	.loc 1 2222 12
	movs	r3, #0
.L302:
	.loc 1 2223 1 discriminator 1
	mov	r0, r3
	add	sp, sp, #92
.LCFI73:
	@ sp needed
	ldr	pc, [sp], #4
.L306:
	.align	2
.L305:
	.word	-21931
	.word	1096897106
	.word	1631679090
	.word	Fsid
.LFE27:
	.size	find_volume, .-find_volume
	.section	.text.validate,"ax",%progbits
	.align	1
	.syntax unified
	.thumb
	.thumb_func
	.fpu fpv5-d16
	.type	validate, %function
validate:
.LFB28:
	.loc 1 2233 1
	@ args = 0, pretend = 0, frame = 16
	@ frame_needed = 0, uses_anonymous_args = 0
	push	{lr}
.LCFI74:
	sub	sp, sp, #20
.LCFI75:
	str	r0, [sp, #4]
	.loc 1 2234 10
	ldr	r3, [sp, #4]
	str	r3, [sp, #12]
	.loc 1 2236 8
	ldr	r3, [sp, #12]
	cmp	r3, #0
	beq	.L308
	.loc 1 2236 21 discriminator 1
	ldr	r3, [sp, #12]
	ldr	r3, [r3]
	.loc 1 2236 14 discriminator 1
	cmp	r3, #0
	beq	.L308
	.loc 1 2236 33 discriminator 2
	ldr	r3, [sp, #12]
	ldr	r3, [r3]
	.loc 1 2236 37 discriminator 2
	ldrb	r3, [r3]	@ zero_extendqisi2
	.loc 1 2236 26 discriminator 2
	cmp	r3, #0
	beq	.L308
	.loc 1 2236 53 discriminator 3
	ldr	r3, [sp, #12]
	ldr	r3, [r3]
	.loc 1 2236 57 discriminator 3
	ldrh	r2, [r3, #6]
	.loc 1 2236 68 discriminator 3
	ldr	r3, [sp, #12]
	ldrh	r3, [r3, #4]
	.loc 1 2236 47 discriminator 3
	cmp	r2, r3
	bne	.L308
	.loc 1 2236 92 discriminator 4
	ldr	r3, [sp, #12]
	ldr	r3, [r3]
	.loc 1 2236 77 discriminator 4
	ldrb	r3, [r3, #1]	@ zero_extendqisi2
	mov	r0, r3
	bl	disk_status
	mov	r3, r0
	.loc 1 2236 103 discriminator 4
	and	r3, r3, #1
	.loc 1 2236 73 discriminator 4
	cmp	r3, #0
	beq	.L309
.L308:
	.loc 1 2237 16
	movs	r3, #9
	b	.L310
.L309:
	.loc 1 2241 12
	movs	r3, #0
.L310:
	.loc 1 2242 1
	mov	r0, r3
	add	sp, sp, #20
.LCFI76:
	@ sp needed
	ldr	pc, [sp], #4
.LFE28:
	.size	validate, .-validate
	.section	.text.f_mount,"ax",%progbits
	.align	1
	.global	f_mount
	.syntax unified
	.thumb
	.thumb_func
	.fpu fpv5-d16
	.type	f_mount, %function
f_mount:
.LFB29:
	.loc 1 2259 1
	@ args = 0, pretend = 0, frame = 32
	@ frame_needed = 0, uses_anonymous_args = 0
	push	{lr}
.LCFI77:
	sub	sp, sp, #36
.LCFI78:
	str	r0, [sp, #12]
	str	r1, [sp, #8]
	mov	r3, r2
	strb	r3, [sp, #7]
	.loc 1 2263 18
	ldr	r3, [sp, #8]
	str	r3, [sp, #16]
	.loc 1 2265 11
	add	r3, sp, #16
	mov	r0, r3
	bl	get_ldnumber
	str	r0, [sp, #28]
	.loc 1 2266 8
	ldr	r3, [sp, #28]
	cmp	r3, #0
	bge	.L312
	.loc 1 2266 25 discriminator 1
	movs	r3, #11
	b	.L318
.L312:
	.loc 1 2267 9
	ldr	r2, .L319
	ldr	r3, [sp, #28]
	ldr	r3, [r2, r3, lsl #2]
	str	r3, [sp, #24]
	.loc 1 2269 8
	ldr	r3, [sp, #24]
	cmp	r3, #0
	beq	.L314
	.loc 1 2276 22
	ldr	r3, [sp, #24]
	movs	r2, #0
	strb	r2, [r3]
.L314:
	.loc 1 2279 9
	ldr	r3, [sp, #12]
	.loc 1 2279 8
	cmp	r3, #0
	beq	.L315
	.loc 1 2280 11
	ldr	r3, [sp, #12]
	.loc 1 2280 21
	movs	r2, #0
	strb	r2, [r3]
.L315:
	.loc 1 2285 16
	ldr	r2, [sp, #12]
	ldr	r1, .L319
	ldr	r3, [sp, #28]
	str	r2, [r1, r3, lsl #2]
	.loc 1 2287 9
	ldr	r3, [sp, #12]
	.loc 1 2287 8
	cmp	r3, #0
	beq	.L316
	.loc 1 2287 13 discriminator 2
	ldrb	r3, [sp, #7]	@ zero_extendqisi2
	cmp	r3, #1
	beq	.L317
.L316:
	.loc 1 2287 33 discriminator 3
	movs	r3, #0
	b	.L318
.L317:
	.loc 1 2289 11
	add	r1, sp, #8
	add	r3, sp, #12
	movs	r2, #0
	mov	r0, r3
	bl	find_volume
	mov	r3, r0
	strb	r3, [sp, #23]
	.loc 1 2290 5
	ldrb	r3, [sp, #23]	@ zero_extendqisi2
.L318:
	.loc 1 2291 1 discriminator 1
	mov	r0, r3
	add	sp, sp, #36
.LCFI79:
	@ sp needed
	ldr	pc, [sp], #4
.L320:
	.align	2
.L319:
	.word	FatFs
.LFE29:
	.size	f_mount, .-f_mount
	.section	.text.f_open,"ax",%progbits
	.align	1
	.global	f_open
	.syntax unified
	.thumb
	.thumb_func
	.fpu fpv5-d16
	.type	f_open, %function
f_open:
.LFB30:
	.loc 1 2302 1
	@ args = 0, pretend = 0, frame = 72
	@ frame_needed = 0, uses_anonymous_args = 0
	push	{lr}
.LCFI80:
	sub	sp, sp, #76
.LCFI81:
	str	r0, [sp, #12]
	str	r1, [sp, #8]
	mov	r3, r2
	strb	r3, [sp, #7]
	.loc 1 2311 8
	ldr	r3, [sp, #12]
	cmp	r3, #0
	bne	.L322
	.loc 1 2311 21 discriminator 1
	movs	r3, #9
	b	.L335
.L322:
	.loc 1 2312 12
	ldr	r3, [sp, #12]
	movs	r2, #0
	str	r2, [r3]
	.loc 1 2316 10
	ldrb	r3, [sp, #7]
	and	r3, r3, #31
	strb	r3, [sp, #7]
	.loc 1 2317 11
	ldrb	r3, [sp, #7]
	bic	r3, r3, #1
	uxtb	r2, r3
	add	r1, sp, #8
	add	r3, sp, #28
	mov	r0, r3
	bl	find_volume
	mov	r3, r0
	strb	r3, [sp, #71]
	.loc 1 2322 8
	ldrb	r3, [sp, #71]	@ zero_extendqisi2
	cmp	r3, #0
	bne	.L324
	.loc 1 2323 9
	add	r3, sp, #16
	str	r3, [sp, #52]
	.loc 1 2324 15
	ldr	r2, [sp, #8]
	add	r3, sp, #28
	mov	r1, r2
	mov	r0, r3
	bl	follow_path
	mov	r3, r0
	strb	r3, [sp, #71]
	.loc 1 2325 13
	ldr	r3, [sp, #48]
	str	r3, [sp, #64]
	.loc 1 2327 12
	ldrb	r3, [sp, #71]	@ zero_extendqisi2
	cmp	r3, #0
	bne	.L325
	.loc 1 2328 16
	ldr	r3, [sp, #64]
	cmp	r3, #0
	bne	.L325
	.loc 1 2329 21
	movs	r3, #6
	strb	r3, [sp, #71]
.L325:
	.loc 1 2336 18
	ldrb	r3, [sp, #7]	@ zero_extendqisi2
	and	r3, r3, #28
	.loc 1 2336 12
	cmp	r3, #0
	beq	.L326
	.loc 1 2337 16
	ldrb	r3, [sp, #71]	@ zero_extendqisi2
	cmp	r3, #0
	beq	.L327
	.loc 1 2338 20
	ldrb	r3, [sp, #71]	@ zero_extendqisi2
	cmp	r3, #4
	bne	.L328
	.loc 1 2342 27
	add	r3, sp, #28
	mov	r0, r3
	bl	dir_register
	mov	r3, r0
	strb	r3, [sp, #71]
.L328:
	.loc 1 2344 22
	ldrb	r3, [sp, #7]
	orr	r3, r3, #8
	strb	r3, [sp, #7]
	.loc 1 2345 21
	ldr	r3, [sp, #48]
	str	r3, [sp, #64]
	b	.L329
.L327:
	.loc 1 2348 24
	ldr	r3, [sp, #64]
	adds	r3, r3, #11
	ldrb	r3, [r3]	@ zero_extendqisi2
	.loc 1 2348 35
	and	r3, r3, #17
	.loc 1 2348 20
	cmp	r3, #0
	beq	.L330
	.loc 1 2349 25
	movs	r3, #7
	strb	r3, [sp, #71]
	b	.L329
.L330:
	.loc 1 2351 30
	ldrb	r3, [sp, #7]	@ zero_extendqisi2
	and	r3, r3, #4
	.loc 1 2351 24
	cmp	r3, #0
	beq	.L329
	.loc 1 2352 29
	movs	r3, #8
	strb	r3, [sp, #71]
.L329:
	.loc 1 2355 16
	ldrb	r3, [sp, #71]	@ zero_extendqisi2
	cmp	r3, #0
	bne	.L331
	.loc 1 2355 39 discriminator 1
	ldrb	r3, [sp, #7]	@ zero_extendqisi2
	and	r3, r3, #8
	.loc 1 2355 30 discriminator 1
	cmp	r3, #0
	beq	.L331
	.loc 1 2356 22
	bl	get_fattime
	str	r0, [sp, #60]
	.loc 1 2357 17
	ldr	r3, [sp, #64]
	adds	r3, r3, #14
	ldr	r2, [sp, #60]
	uxtb	r2, r2
	strb	r2, [r3]
	ldr	r3, [sp, #60]
	uxth	r3, r3
	lsrs	r3, r3, #8
	uxth	r2, r3
	ldr	r3, [sp, #64]
	adds	r3, r3, #15
	uxtb	r2, r2
	strb	r2, [r3]
	ldr	r3, [sp, #60]
	lsrs	r2, r3, #16
	ldr	r3, [sp, #64]
	adds	r3, r3, #16
	uxtb	r2, r2
	strb	r2, [r3]
	ldr	r3, [sp, #60]
	lsrs	r2, r3, #24
	ldr	r3, [sp, #64]
	adds	r3, r3, #17
	uxtb	r2, r2
	strb	r2, [r3]
	.loc 1 2358 17
	ldr	r3, [sp, #64]
	adds	r3, r3, #22
	ldr	r2, [sp, #60]
	uxtb	r2, r2
	strb	r2, [r3]
	ldr	r3, [sp, #60]
	uxth	r3, r3
	lsrs	r3, r3, #8
	uxth	r2, r3
	ldr	r3, [sp, #64]
	adds	r3, r3, #23
	uxtb	r2, r2
	strb	r2, [r3]
	ldr	r3, [sp, #60]
	lsrs	r2, r3, #16
	ldr	r3, [sp, #64]
	adds	r3, r3, #24
	uxtb	r2, r2
	strb	r2, [r3]
	ldr	r3, [sp, #60]
	lsrs	r2, r3, #24
	ldr	r3, [sp, #64]
	adds	r3, r3, #25
	uxtb	r2, r2
	strb	r2, [r3]
	.loc 1 2359 20
	ldr	r3, [sp, #64]
	adds	r3, r3, #11
	.loc 1 2359 31
	movs	r2, #0
	strb	r2, [r3]
	.loc 1 2360 17
	ldr	r3, [sp, #64]
	adds	r3, r3, #28
	movs	r2, #0
	strb	r2, [r3]
	ldr	r3, [sp, #64]
	adds	r3, r3, #29
	movs	r2, #0
	strb	r2, [r3]
	ldr	r3, [sp, #64]
	adds	r3, r3, #30
	movs	r2, #0
	strb	r2, [r3]
	ldr	r3, [sp, #64]
	adds	r3, r3, #31
	movs	r2, #0
	strb	r2, [r3]
	.loc 1 2361 22
	ldr	r3, [sp, #28]
	ldr	r1, [sp, #64]
	mov	r0, r3
	bl	ld_clust
	str	r0, [sp, #56]
	.loc 1 2362 17
	movs	r1, #0
	ldr	r0, [sp, #64]
	bl	st_clust
	.loc 1 2363 19
	ldr	r3, [sp, #28]
	.loc 1 2363 30
	movs	r2, #1
	strb	r2, [r3, #4]
	.loc 1 2364 20
	ldr	r3, [sp, #56]
	cmp	r3, #0
	beq	.L331
	.loc 1 2365 28
	ldr	r3, [sp, #28]
	.loc 1 2365 24
	ldr	r3, [r3, #48]
	str	r3, [sp, #60]
	.loc 1 2366 27
	ldr	r3, [sp, #28]
	ldr	r1, [sp, #56]
	mov	r0, r3
	bl	remove_chain
	mov	r3, r0
	strb	r3, [sp, #71]
	.loc 1 2367 24
	ldrb	r3, [sp, #71]	@ zero_extendqisi2
	cmp	r3, #0
	bne	.L331
	.loc 1 2368 27
	ldr	r3, [sp, #28]
	.loc 1 2368 48
	ldr	r2, [sp, #56]
	subs	r2, r2, #1
	.loc 1 2368 43
	str	r2, [r3, #12]
	.loc 1 2369 31
	ldr	r3, [sp, #28]
	ldr	r1, [sp, #60]
	mov	r0, r3
	bl	move_window
	mov	r3, r0
	strb	r3, [sp, #71]
	b	.L331
.L326:
	.loc 1 2375 16
	ldrb	r3, [sp, #71]	@ zero_extendqisi2
	cmp	r3, #0
	bne	.L331
	.loc 1 2376 24
	ldr	r3, [sp, #64]
	adds	r3, r3, #11
	ldrb	r3, [r3]	@ zero_extendqisi2
	.loc 1 2376 35
	and	r3, r3, #16
	.loc 1 2376 20
	cmp	r3, #0
	beq	.L332
	.loc 1 2377 25
	movs	r3, #4
	strb	r3, [sp, #71]
	b	.L331
.L332:
	.loc 1 2379 31
	ldrb	r3, [sp, #7]	@ zero_extendqisi2
	and	r3, r3, #2
	.loc 1 2379 24
	cmp	r3, #0
	beq	.L331
	.loc 1 2379 50 discriminator 1
	ldr	r3, [sp, #64]
	adds	r3, r3, #11
	ldrb	r3, [r3]	@ zero_extendqisi2
	.loc 1 2379 61 discriminator 1
	and	r3, r3, #1
	.loc 1 2379 43 discriminator 1
	cmp	r3, #0
	beq	.L331
	.loc 1 2380 29
	movs	r3, #7
	strb	r3, [sp, #71]
.L331:
	.loc 1 2384 12
	ldrb	r3, [sp, #71]	@ zero_extendqisi2
	cmp	r3, #0
	bne	.L333
	.loc 1 2385 22
	ldrb	r3, [sp, #7]	@ zero_extendqisi2
	and	r3, r3, #8
	.loc 1 2385 16
	cmp	r3, #0
	beq	.L334
	.loc 1 2386 22
	ldrb	r3, [sp, #7]
	orr	r3, r3, #32
	strb	r3, [sp, #7]
.L334:
	.loc 1 2387 30
	ldr	r3, [sp, #28]
	.loc 1 2387 33
	ldr	r2, [r3, #48]
	.loc 1 2387 26
	ldr	r3, [sp, #12]
	str	r2, [r3, #28]
	.loc 1 2388 25
	ldr	r3, [sp, #12]
	ldr	r2, [sp, #64]
	str	r2, [r3, #32]
.L333:
	.loc 1 2408 12
	ldrb	r3, [sp, #71]	@ zero_extendqisi2
	cmp	r3, #0
	bne	.L324
	.loc 1 2409 22
	ldr	r3, [sp, #12]
	ldrb	r2, [sp, #7]
	strb	r2, [r3, #6]
	.loc 1 2410 21
	ldr	r3, [sp, #12]
	movs	r2, #0
	strb	r2, [r3, #7]
	.loc 1 2411 26
	ldr	r3, [sp, #28]
	ldr	r1, [sp, #64]
	mov	r0, r3
	bl	ld_clust
	mov	r2, r0
	.loc 1 2411 24
	ldr	r3, [sp, #12]
	str	r2, [r3, #16]
	.loc 1 2412 25
	ldr	r3, [sp, #64]
	adds	r3, r3, #31
	ldrb	r3, [r3]	@ zero_extendqisi2
	lsls	r2, r3, #24
	ldr	r3, [sp, #64]
	adds	r3, r3, #30
	ldrb	r3, [r3]	@ zero_extendqisi2
	lsls	r3, r3, #16
	orrs	r3, r3, r2
	ldr	r2, [sp, #64]
	adds	r2, r2, #29
	ldrb	r2, [r2]	@ zero_extendqisi2
	lsls	r2, r2, #8
	orrs	r3, r3, r2
	ldr	r2, [sp, #64]
	adds	r2, r2, #28
	ldrb	r2, [r2]	@ zero_extendqisi2
	orrs	r2, r2, r3
	.loc 1 2412 23
	ldr	r3, [sp, #12]
	str	r2, [r3, #12]
	.loc 1 2413 22
	ldr	r3, [sp, #12]
	movs	r2, #0
	str	r2, [r3, #8]
	.loc 1 2414 23
	ldr	r3, [sp, #12]
	movs	r2, #0
	str	r2, [r3, #24]
	.loc 1 2416 23
	ldr	r3, [sp, #12]
	movs	r2, #0
	str	r2, [r3, #36]
	.loc 1 2418 24
	ldr	r2, [sp, #28]
	.loc 1 2418 20
	ldr	r3, [sp, #12]
	str	r2, [r3]
	.loc 1 2419 24
	ldr	r3, [sp, #12]
	ldr	r3, [r3]
	.loc 1 2419 28
	ldrh	r2, [r3, #6]
	.loc 1 2419 20
	ldr	r3, [sp, #12]
	strh	r2, [r3, #4]	@ movhi
.L324:
	.loc 1 2423 5
	ldrb	r3, [sp, #71]	@ zero_extendqisi2
.L335:
	.loc 1 2424 1 discriminator 1
	mov	r0, r3
	add	sp, sp, #76
.LCFI82:
	@ sp needed
	ldr	pc, [sp], #4
.LFE30:
	.size	f_open, .-f_open
	.section	.text.f_read,"ax",%progbits
	.align	1
	.global	f_read
	.syntax unified
	.thumb
	.thumb_func
	.fpu fpv5-d16
	.type	f_read, %function
f_read:
.LFB31:
	.loc 1 2436 1
	@ args = 0, pretend = 0, frame = 48
	@ frame_needed = 0, uses_anonymous_args = 0
	push	{lr}
.LCFI83:
	sub	sp, sp, #52
.LCFI84:
	str	r0, [sp, #12]
	str	r1, [sp, #8]
	str	r2, [sp, #4]
	str	r3, [sp]
	.loc 1 2440 18
	ldr	r3, [sp, #8]
	str	r3, [sp, #32]
	.loc 1 2442 9
	ldr	r3, [sp]
	movs	r2, #0
	str	r2, [r3]
	.loc 1 2444 11
	ldr	r0, [sp, #12]
	bl	validate
	mov	r3, r0
	strb	r3, [sp, #31]
	.loc 1 2445 8
	ldrb	r3, [sp, #31]	@ zero_extendqisi2
	cmp	r3, #0
	beq	.L337
	.loc 1 2445 23 discriminator 1
	ldrb	r3, [sp, #31]	@ zero_extendqisi2
	b	.L338
.L337:
	.loc 1 2446 11
	ldr	r3, [sp, #12]
	ldrb	r3, [r3, #7]	@ zero_extendqisi2
	.loc 1 2446 8
	cmp	r3, #0
	beq	.L339
	.loc 1 2447 9
	ldr	r3, [sp, #12]
	ldrb	r3, [r3, #7]	@ zero_extendqisi2
	b	.L338
.L339:
	.loc 1 2448 13
	ldr	r3, [sp, #12]
	ldrb	r3, [r3, #6]	@ zero_extendqisi2
	.loc 1 2448 20
	and	r3, r3, #1
	.loc 1 2448 8
	cmp	r3, #0
	bne	.L340
	.loc 1 2449 9
	movs	r3, #7
	b	.L338
.L340:
	.loc 1 2450 16
	ldr	r3, [sp, #12]
	ldr	r2, [r3, #12]
	.loc 1 2450 28
	ldr	r3, [sp, #12]
	ldr	r3, [r3, #8]
	.loc 1 2450 12
	subs	r3, r2, r3
	str	r3, [sp, #24]
	.loc 1 2451 8
	ldr	r2, [sp, #4]
	ldr	r3, [sp, #24]
	cmp	r2, r3
	bls	.L342
	.loc 1 2451 27 discriminator 1
	ldr	r3, [sp, #24]
	str	r3, [sp, #4]
	.loc 1 2453 5 discriminator 1
	b	.L342
.L360:
	.loc 1 2455 16
	ldr	r3, [sp, #12]
	ldr	r3, [r3, #8]
	.loc 1 2455 23
	ubfx	r3, r3, #0, #9
	.loc 1 2455 12
	cmp	r3, #0
	bne	.L343
	.loc 1 2456 30
	ldr	r3, [sp, #12]
	ldr	r3, [r3, #8]
	.loc 1 2456 37
	lsrs	r3, r3, #9
	.loc 1 2456 21
	uxtb	r2, r3
	.loc 1 2456 55
	ldr	r3, [sp, #12]
	ldr	r3, [r3]
	.loc 1 2456 59
	ldrb	r3, [r3, #2]	@ zero_extendqisi2
	.loc 1 2456 67
	subs	r3, r3, #1
	uxtb	r3, r3
	.loc 1 2456 19
	ands	r3, r3, r2
	strb	r3, [sp, #23]
	.loc 1 2457 16
	ldrb	r3, [sp, #23]	@ zero_extendqisi2
	cmp	r3, #0
	bne	.L344
	.loc 1 2458 23
	ldr	r3, [sp, #12]
	ldr	r3, [r3, #8]
	.loc 1 2458 20
	cmp	r3, #0
	bne	.L345
	.loc 1 2459 26
	ldr	r3, [sp, #12]
	ldr	r3, [r3, #16]
	str	r3, [sp, #44]
	b	.L346
.L345:
	.loc 1 2462 27
	ldr	r3, [sp, #12]
	ldr	r3, [r3, #36]
	.loc 1 2462 24
	cmp	r3, #0
	beq	.L347
	.loc 1 2463 32
	ldr	r3, [sp, #12]
	ldr	r3, [r3, #8]
	mov	r1, r3
	ldr	r0, [sp, #12]
	bl	clmt_clust
	str	r0, [sp, #44]
	b	.L346
.L347:
	.loc 1 2466 32
	ldr	r3, [sp, #12]
	ldr	r2, [r3]
	ldr	r3, [sp, #12]
	ldr	r3, [r3, #20]
	mov	r1, r3
	mov	r0, r2
	bl	get_fat
	str	r0, [sp, #44]
.L346:
	.loc 1 2468 20
	ldr	r3, [sp, #44]
	cmp	r3, #1
	bhi	.L348
	.loc 1 2468 31 discriminator 1
	ldr	r3, [sp, #12]
	movs	r2, #2
	strb	r2, [r3, #7]
	movs	r3, #2
	b	.L338
.L348:
	.loc 1 2469 20
	ldr	r3, [sp, #44]
	cmp	r3, #-1
	bne	.L349
	.loc 1 2469 41 discriminator 1
	ldr	r3, [sp, #12]
	movs	r2, #1
	strb	r2, [r3, #7]
	movs	r3, #1
	b	.L338
.L349:
	.loc 1 2470 27
	ldr	r3, [sp, #12]
	ldr	r2, [sp, #44]
	str	r2, [r3, #20]
.L344:
	.loc 1 2472 20
	ldr	r3, [sp, #12]
	ldr	r2, [r3]
	ldr	r3, [sp, #12]
	ldr	r3, [r3, #20]
	mov	r1, r3
	mov	r0, r2
	bl	clust2sect
	str	r0, [sp, #16]
	.loc 1 2473 16
	ldr	r3, [sp, #16]
	cmp	r3, #0
	bne	.L350
	.loc 1 2473 24 discriminator 1
	ldr	r3, [sp, #12]
	movs	r2, #2
	strb	r2, [r3, #7]
	movs	r3, #2
	b	.L338
.L350:
	.loc 1 2474 18
	ldrb	r3, [sp, #23]	@ zero_extendqisi2
	ldr	r2, [sp, #16]
	add	r3, r3, r2
	str	r3, [sp, #16]
	.loc 1 2475 16
	ldr	r3, [sp, #4]
	lsrs	r3, r3, #9
	str	r3, [sp, #36]
	.loc 1 2476 16
	ldr	r3, [sp, #36]
	cmp	r3, #0
	beq	.L351
	.loc 1 2477 27
	ldrb	r2, [sp, #23]	@ zero_extendqisi2
	ldr	r3, [sp, #36]
	add	r3, r3, r2
	.loc 1 2477 36
	ldr	r2, [sp, #12]
	ldr	r2, [r2]
	.loc 1 2477 40
	ldrb	r2, [r2, #2]	@ zero_extendqisi2
	.loc 1 2477 20
	cmp	r3, r2
	bls	.L352
	.loc 1 2478 28
	ldr	r3, [sp, #12]
	ldr	r3, [r3]
	.loc 1 2478 32
	ldrb	r3, [r3, #2]	@ zero_extendqisi2
	mov	r2, r3
	.loc 1 2478 40
	ldrb	r3, [sp, #23]	@ zero_extendqisi2
	subs	r3, r2, r3
	.loc 1 2478 24
	str	r3, [sp, #36]
.L352:
	.loc 1 2479 33
	ldr	r3, [sp, #12]
	ldr	r3, [r3]
	.loc 1 2479 21
	ldrb	r0, [r3, #1]	@ zero_extendqisi2
	ldr	r3, [sp, #36]
	uxtb	r3, r3
	ldr	r2, [sp, #16]
	ldr	r1, [sp, #32]
	bl	disk_read
	mov	r3, r0
	.loc 1 2479 20
	cmp	r3, #0
	beq	.L353
	.loc 1 2480 21
	ldr	r3, [sp, #12]
	movs	r2, #1
	strb	r2, [r3, #7]
	movs	r3, #1
	b	.L338
.L353:
	.loc 1 2486 24
	ldr	r3, [sp, #12]
	ldrb	r3, [r3, #6]	@ zero_extendqisi2
	.loc 1 2486 31
	and	r3, r3, #64
	.loc 1 2486 20
	cmp	r3, #0
	beq	.L354
	.loc 1 2486 49 discriminator 1
	ldr	r3, [sp, #12]
	ldr	r2, [r3, #24]
	.loc 1 2486 57 discriminator 1
	ldr	r3, [sp, #16]
	subs	r3, r2, r3
	.loc 1 2486 44 discriminator 1
	ldr	r2, [sp, #36]
	cmp	r2, r3
	bls	.L354
	.loc 1 2487 41
	ldr	r3, [sp, #12]
	ldr	r2, [r3, #24]
	.loc 1 2487 49
	ldr	r3, [sp, #16]
	subs	r3, r2, r3
	.loc 1 2487 57
	lsls	r3, r3, #9
	.loc 1 2487 35
	ldr	r2, [sp, #32]
	adds	r0, r2, r3
	.loc 1 2487 74
	ldr	r3, [sp, #12]
	adds	r3, r3, #40
	.loc 1 2487 21
	mov	r2, #512
	mov	r1, r3
	bl	mem_cpy
.L354:
	.loc 1 2490 22
	ldr	r3, [sp, #36]
	lsls	r3, r3, #9
	str	r3, [sp, #40]
	.loc 1 2491 17
	b	.L355
.L351:
	.loc 1 2494 19
	ldr	r3, [sp, #12]
	ldr	r3, [r3, #24]
	.loc 1 2494 16
	ldr	r2, [sp, #16]
	cmp	r2, r3
	beq	.L356
	.loc 1 2496 23
	ldr	r3, [sp, #12]
	ldrb	r3, [r3, #6]	@ zero_extendqisi2
	.loc 1 2496 30
	and	r3, r3, #64
	.loc 1 2496 20
	cmp	r3, #0
	beq	.L357
	.loc 1 2497 38
	ldr	r3, [sp, #12]
	ldr	r3, [r3]
	.loc 1 2497 25
	ldrb	r0, [r3, #1]	@ zero_extendqisi2
	.loc 1 2497 51
	ldr	r3, [sp, #12]
	add	r1, r3, #40
	.loc 1 2497 60
	ldr	r3, [sp, #12]
	ldr	r2, [r3, #24]
	.loc 1 2497 25
	movs	r3, #1
	bl	disk_write
	mov	r3, r0
	.loc 1 2497 24
	cmp	r3, #0
	beq	.L358
	.loc 1 2498 25
	ldr	r3, [sp, #12]
	movs	r2, #1
	strb	r2, [r3, #7]
	movs	r3, #1
	b	.L338
.L358:
	.loc 1 2499 30
	ldr	r3, [sp, #12]
	ldrb	r3, [r3, #6]	@ zero_extendqisi2
	bic	r3, r3, #64
	uxtb	r2, r3
	ldr	r3, [sp, #12]
	strb	r2, [r3, #6]
.L357:
	.loc 1 2502 33
	ldr	r3, [sp, #12]
	ldr	r3, [r3]
	.loc 1 2502 21
	ldrb	r0, [r3, #1]	@ zero_extendqisi2
	.loc 1 2502 46
	ldr	r3, [sp, #12]
	add	r1, r3, #40
	.loc 1 2502 21
	movs	r3, #1
	ldr	r2, [sp, #16]
	bl	disk_read
	mov	r3, r0
	.loc 1 2502 20
	cmp	r3, #0
	beq	.L356
	.loc 1 2503 21
	ldr	r3, [sp, #12]
	movs	r2, #1
	strb	r2, [r3, #7]
	movs	r3, #1
	b	.L338
.L356:
	.loc 1 2506 23
	ldr	r3, [sp, #12]
	ldr	r2, [sp, #16]
	str	r2, [r3, #24]
.L343:
	.loc 1 2508 38
	ldr	r3, [sp, #12]
	ldr	r3, [r3, #8]
	.loc 1 2508 45
	ubfx	r3, r3, #0, #9
	.loc 1 2508 14
	rsb	r3, r3, #512
	str	r3, [sp, #40]
	.loc 1 2509 12
	ldr	r2, [sp, #40]
	ldr	r3, [sp, #4]
	cmp	r2, r3
	bls	.L359
	.loc 1 2509 30 discriminator 1
	ldr	r3, [sp, #4]
	str	r3, [sp, #40]
.L359:
	.loc 1 2515 35
	ldr	r3, [sp, #12]
	ldr	r3, [r3, #8]
	.loc 1 2515 42
	ubfx	r3, r3, #0, #9
	.loc 1 2515 24
	adds	r3, r3, #40
	ldr	r2, [sp, #12]
	add	r3, r3, r2
	.loc 1 2515 9
	ldr	r2, [sp, #40]
	mov	r1, r3
	ldr	r0, [sp, #32]
	bl	mem_cpy
.L355:
	.loc 1 2454 15
	ldr	r2, [sp, #32]
	ldr	r3, [sp, #40]
	add	r3, r3, r2
	str	r3, [sp, #32]
	.loc 1 2454 33
	ldr	r3, [sp, #12]
	ldr	r2, [r3, #8]
	ldr	r3, [sp, #40]
	add	r2, r2, r3
	ldr	r3, [sp, #12]
	str	r2, [r3, #8]
	.loc 1 2454 46
	ldr	r3, [sp]
	ldr	r2, [r3]
	ldr	r3, [sp, #40]
	add	r2, r2, r3
	ldr	r3, [sp]
	str	r2, [r3]
	.loc 1 2454 59
	ldr	r2, [sp, #4]
	ldr	r3, [sp, #40]
	subs	r3, r2, r3
	str	r3, [sp, #4]
.L342:
	.loc 1 2453 5
	ldr	r3, [sp, #4]
	cmp	r3, #0
	bne	.L360
	.loc 1 2519 5
	movs	r3, #0
.L338:
	.loc 1 2520 1
	mov	r0, r3
	add	sp, sp, #52
.LCFI85:
	@ sp needed
	ldr	pc, [sp], #4
.LFE31:
	.size	f_read, .-f_read
	.section	.text.f_write,"ax",%progbits
	.align	1
	.global	f_write
	.syntax unified
	.thumb
	.thumb_func
	.fpu fpv5-d16
	.type	f_write, %function
f_write:
.LFB32:
	.loc 1 2533 1
	@ args = 0, pretend = 0, frame = 40
	@ frame_needed = 0, uses_anonymous_args = 0
	push	{lr}
.LCFI86:
	sub	sp, sp, #44
.LCFI87:
	str	r0, [sp, #12]
	str	r1, [sp, #8]
	str	r2, [sp, #4]
	str	r3, [sp]
	.loc 1 2537 17
	ldr	r3, [sp, #8]
	str	r3, [sp, #24]
	.loc 1 2540 9
	ldr	r3, [sp]
	movs	r2, #0
	str	r2, [r3]
	.loc 1 2542 11
	ldr	r0, [sp, #12]
	bl	validate
	mov	r3, r0
	strb	r3, [sp, #23]
	.loc 1 2543 8
	ldrb	r3, [sp, #23]	@ zero_extendqisi2
	cmp	r3, #0
	beq	.L362
	.loc 1 2543 23 discriminator 1
	ldrb	r3, [sp, #23]	@ zero_extendqisi2
	b	.L363
.L362:
	.loc 1 2544 11
	ldr	r3, [sp, #12]
	ldrb	r3, [r3, #7]	@ zero_extendqisi2
	.loc 1 2544 8
	cmp	r3, #0
	beq	.L364
	.loc 1 2545 9
	ldr	r3, [sp, #12]
	ldrb	r3, [r3, #7]	@ zero_extendqisi2
	b	.L363
.L364:
	.loc 1 2546 13
	ldr	r3, [sp, #12]
	ldrb	r3, [r3, #6]	@ zero_extendqisi2
	.loc 1 2546 20
	and	r3, r3, #2
	.loc 1 2546 8
	cmp	r3, #0
	bne	.L365
	.loc 1 2547 9
	movs	r3, #7
	b	.L363
.L365:
	.loc 1 2548 11
	ldr	r3, [sp, #12]
	ldr	r2, [r3, #8]
	.loc 1 2548 18
	ldr	r3, [sp, #4]
	add	r2, r2, r3
	.loc 1 2548 28
	ldr	r3, [sp, #12]
	ldr	r3, [r3, #8]
	.loc 1 2548 8
	cmp	r2, r3
	bcs	.L367
	.loc 1 2548 40 discriminator 1
	movs	r3, #0
	str	r3, [sp, #4]
	.loc 1 2550 5 discriminator 1
	b	.L367
.L387:
	.loc 1 2552 16
	ldr	r3, [sp, #12]
	ldr	r3, [r3, #8]
	.loc 1 2552 23
	ubfx	r3, r3, #0, #9
	.loc 1 2552 12
	cmp	r3, #0
	bne	.L368
	.loc 1 2553 30
	ldr	r3, [sp, #12]
	ldr	r3, [r3, #8]
	.loc 1 2553 37
	lsrs	r3, r3, #9
	.loc 1 2553 21
	uxtb	r2, r3
	.loc 1 2553 55
	ldr	r3, [sp, #12]
	ldr	r3, [r3]
	.loc 1 2553 59
	ldrb	r3, [r3, #2]	@ zero_extendqisi2
	.loc 1 2553 67
	subs	r3, r3, #1
	uxtb	r3, r3
	.loc 1 2553 19
	ands	r3, r3, r2
	strb	r3, [sp, #22]
	.loc 1 2554 16
	ldrb	r3, [sp, #22]	@ zero_extendqisi2
	cmp	r3, #0
	bne	.L369
	.loc 1 2555 23
	ldr	r3, [sp, #12]
	ldr	r3, [r3, #8]
	.loc 1 2555 20
	cmp	r3, #0
	bne	.L370
	.loc 1 2556 26
	ldr	r3, [sp, #12]
	ldr	r3, [r3, #16]
	str	r3, [sp, #36]
	.loc 1 2557 24
	ldr	r3, [sp, #36]
	cmp	r3, #0
	bne	.L371
	.loc 1 2558 32
	ldr	r3, [sp, #12]
	ldr	r3, [r3]
	movs	r1, #0
	mov	r0, r3
	bl	create_chain
	str	r0, [sp, #36]
	b	.L371
.L370:
	.loc 1 2561 27
	ldr	r3, [sp, #12]
	ldr	r3, [r3, #36]
	.loc 1 2561 24
	cmp	r3, #0
	beq	.L372
	.loc 1 2562 32
	ldr	r3, [sp, #12]
	ldr	r3, [r3, #8]
	mov	r1, r3
	ldr	r0, [sp, #12]
	bl	clmt_clust
	str	r0, [sp, #36]
	b	.L371
.L372:
	.loc 1 2565 32
	ldr	r3, [sp, #12]
	ldr	r2, [r3]
	ldr	r3, [sp, #12]
	ldr	r3, [r3, #20]
	mov	r1, r3
	mov	r0, r2
	bl	create_chain
	str	r0, [sp, #36]
.L371:
	.loc 1 2567 20
	ldr	r3, [sp, #36]
	cmp	r3, #0
	beq	.L389
	.loc 1 2568 20
	ldr	r3, [sp, #36]
	cmp	r3, #1
	bne	.L375
	.loc 1 2568 32 discriminator 1
	ldr	r3, [sp, #12]
	movs	r2, #2
	strb	r2, [r3, #7]
	movs	r3, #2
	b	.L363
.L375:
	.loc 1 2569 20
	ldr	r3, [sp, #36]
	cmp	r3, #-1
	bne	.L376
	.loc 1 2569 41 discriminator 1
	ldr	r3, [sp, #12]
	movs	r2, #1
	strb	r2, [r3, #7]
	movs	r3, #1
	b	.L363
.L376:
	.loc 1 2570 27
	ldr	r3, [sp, #12]
	ldr	r2, [sp, #36]
	str	r2, [r3, #20]
	.loc 1 2571 23
	ldr	r3, [sp, #12]
	ldr	r3, [r3, #16]
	.loc 1 2571 20
	cmp	r3, #0
	bne	.L369
	.loc 1 2571 49 discriminator 1
	ldr	r3, [sp, #12]
	ldr	r2, [sp, #36]
	str	r2, [r3, #16]
.L369:
	.loc 1 2577 19
	ldr	r3, [sp, #12]
	ldrb	r3, [r3, #6]	@ zero_extendqisi2
	.loc 1 2577 26
	and	r3, r3, #64
	.loc 1 2577 16
	cmp	r3, #0
	beq	.L377
	.loc 1 2578 34
	ldr	r3, [sp, #12]
	ldr	r3, [r3]
	.loc 1 2578 21
	ldrb	r0, [r3, #1]	@ zero_extendqisi2
	.loc 1 2578 47
	ldr	r3, [sp, #12]
	add	r1, r3, #40
	.loc 1 2578 56
	ldr	r3, [sp, #12]
	ldr	r2, [r3, #24]
	.loc 1 2578 21
	movs	r3, #1
	bl	disk_write
	mov	r3, r0
	.loc 1 2578 20
	cmp	r3, #0
	beq	.L378
	.loc 1 2579 21
	ldr	r3, [sp, #12]
	movs	r2, #1
	strb	r2, [r3, #7]
	movs	r3, #1
	b	.L363
.L378:
	.loc 1 2580 26
	ldr	r3, [sp, #12]
	ldrb	r3, [r3, #6]	@ zero_extendqisi2
	bic	r3, r3, #64
	uxtb	r2, r3
	ldr	r3, [sp, #12]
	strb	r2, [r3, #6]
.L377:
	.loc 1 2583 20
	ldr	r3, [sp, #12]
	ldr	r2, [r3]
	ldr	r3, [sp, #12]
	ldr	r3, [r3, #20]
	mov	r1, r3
	mov	r0, r2
	bl	clust2sect
	str	r0, [sp, #16]
	.loc 1 2584 16
	ldr	r3, [sp, #16]
	cmp	r3, #0
	bne	.L379
	.loc 1 2584 24 discriminator 1
	ldr	r3, [sp, #12]
	movs	r2, #2
	strb	r2, [r3, #7]
	movs	r3, #2
	b	.L363
.L379:
	.loc 1 2585 18
	ldrb	r3, [sp, #22]	@ zero_extendqisi2
	ldr	r2, [sp, #16]
	add	r3, r3, r2
	str	r3, [sp, #16]
	.loc 1 2586 16
	ldr	r3, [sp, #4]
	lsrs	r3, r3, #9
	str	r3, [sp, #28]
	.loc 1 2587 16
	ldr	r3, [sp, #28]
	cmp	r3, #0
	beq	.L380
	.loc 1 2588 27
	ldrb	r2, [sp, #22]	@ zero_extendqisi2
	ldr	r3, [sp, #28]
	add	r3, r3, r2
	.loc 1 2588 36
	ldr	r2, [sp, #12]
	ldr	r2, [r2]
	.loc 1 2588 40
	ldrb	r2, [r2, #2]	@ zero_extendqisi2
	.loc 1 2588 20
	cmp	r3, r2
	bls	.L381
	.loc 1 2589 28
	ldr	r3, [sp, #12]
	ldr	r3, [r3]
	.loc 1 2589 32
	ldrb	r3, [r3, #2]	@ zero_extendqisi2
	mov	r2, r3
	.loc 1 2589 40
	ldrb	r3, [sp, #22]	@ zero_extendqisi2
	subs	r3, r2, r3
	.loc 1 2589 24
	str	r3, [sp, #28]
.L381:
	.loc 1 2590 34
	ldr	r3, [sp, #12]
	ldr	r3, [r3]
	.loc 1 2590 21
	ldrb	r0, [r3, #1]	@ zero_extendqisi2
	ldr	r3, [sp, #28]
	uxtb	r3, r3
	ldr	r2, [sp, #16]
	ldr	r1, [sp, #24]
	bl	disk_write
	mov	r3, r0
	.loc 1 2590 20
	cmp	r3, #0
	beq	.L382
	.loc 1 2591 21
	ldr	r3, [sp, #12]
	movs	r2, #1
	strb	r2, [r3, #7]
	movs	r3, #1
	b	.L363
.L382:
	.loc 1 2599 23
	ldr	r3, [sp, #12]
	ldr	r2, [r3, #24]
	.loc 1 2599 31
	ldr	r3, [sp, #16]
	subs	r3, r2, r3
	.loc 1 2599 20
	ldr	r2, [sp, #28]
	cmp	r2, r3
	bls	.L383
	.loc 1 2600 31
	ldr	r3, [sp, #12]
	add	r0, r3, #40
	.loc 1 2600 50
	ldr	r3, [sp, #12]
	ldr	r2, [r3, #24]
	.loc 1 2600 58
	ldr	r3, [sp, #16]
	subs	r3, r2, r3
	.loc 1 2600 66
	lsls	r3, r3, #9
	.loc 1 2600 44
	ldr	r2, [sp, #24]
	add	r3, r3, r2
	.loc 1 2600 21
	mov	r2, #512
	mov	r1, r3
	bl	mem_cpy
	.loc 1 2601 30
	ldr	r3, [sp, #12]
	ldrb	r3, [r3, #6]	@ zero_extendqisi2
	bic	r3, r3, #64
	uxtb	r2, r3
	ldr	r3, [sp, #12]
	strb	r2, [r3, #6]
.L383:
	.loc 1 2605 22
	ldr	r3, [sp, #28]
	lsls	r3, r3, #9
	str	r3, [sp, #32]
	.loc 1 2606 17
	b	.L384
.L380:
	.loc 1 2614 19
	ldr	r3, [sp, #12]
	ldr	r3, [r3, #24]
	.loc 1 2614 16
	ldr	r2, [sp, #16]
	cmp	r2, r3
	beq	.L385
	.loc 1 2615 23
	ldr	r3, [sp, #12]
	ldr	r2, [r3, #8]
	.loc 1 2615 34
	ldr	r3, [sp, #12]
	ldr	r3, [r3, #12]
	.loc 1 2615 20
	cmp	r2, r3
	bcs	.L385
	.loc 1 2616 33 discriminator 1
	ldr	r3, [sp, #12]
	ldr	r3, [r3]
	.loc 1 2616 21 discriminator 1
	ldrb	r0, [r3, #1]	@ zero_extendqisi2
	.loc 1 2616 46 discriminator 1
	ldr	r3, [sp, #12]
	add	r1, r3, #40
	.loc 1 2616 21 discriminator 1
	movs	r3, #1
	ldr	r2, [sp, #16]
	bl	disk_read
	mov	r3, r0
	.loc 1 2615 42 discriminator 1
	cmp	r3, #0
	beq	.L385
	.loc 1 2617 25
	ldr	r3, [sp, #12]
	movs	r2, #1
	strb	r2, [r3, #7]
	movs	r3, #1
	b	.L363
.L385:
	.loc 1 2620 23
	ldr	r3, [sp, #12]
	ldr	r2, [sp, #16]
	str	r2, [r3, #24]
.L368:
	.loc 1 2622 38
	ldr	r3, [sp, #12]
	ldr	r3, [r3, #8]
	.loc 1 2622 45
	ubfx	r3, r3, #0, #9
	.loc 1 2622 14
	rsb	r3, r3, #512
	str	r3, [sp, #32]
	.loc 1 2623 12
	ldr	r2, [sp, #32]
	ldr	r3, [sp, #4]
	cmp	r2, r3
	bls	.L386
	.loc 1 2623 30 discriminator 1
	ldr	r3, [sp, #4]
	str	r3, [sp, #32]
.L386:
	.loc 1 2630 28
	ldr	r3, [sp, #12]
	ldr	r3, [r3, #8]
	.loc 1 2630 35
	ubfx	r3, r3, #0, #9
	.loc 1 2630 17
	adds	r3, r3, #40
	ldr	r2, [sp, #12]
	add	r3, r3, r2
	.loc 1 2630 9
	ldr	r2, [sp, #32]
	ldr	r1, [sp, #24]
	mov	r0, r3
	bl	mem_cpy
	.loc 1 2631 18
	ldr	r3, [sp, #12]
	ldrb	r3, [r3, #6]	@ zero_extendqisi2
	orr	r3, r3, #64
	uxtb	r2, r3
	ldr	r3, [sp, #12]
	strb	r2, [r3, #6]
.L384:
	.loc 1 2551 15
	ldr	r2, [sp, #24]
	ldr	r3, [sp, #32]
	add	r3, r3, r2
	str	r3, [sp, #24]
	.loc 1 2551 33
	ldr	r3, [sp, #12]
	ldr	r2, [r3, #8]
	ldr	r3, [sp, #32]
	add	r2, r2, r3
	ldr	r3, [sp, #12]
	str	r2, [r3, #8]
	.loc 1 2551 46
	ldr	r3, [sp]
	ldr	r2, [r3]
	ldr	r3, [sp, #32]
	add	r2, r2, r3
	ldr	r3, [sp]
	str	r2, [r3]
	.loc 1 2551 59
	ldr	r2, [sp, #4]
	ldr	r3, [sp, #32]
	subs	r3, r2, r3
	str	r3, [sp, #4]
.L367:
	.loc 1 2550 5
	ldr	r3, [sp, #4]
	cmp	r3, #0
	bne	.L387
	b	.L374
.L389:
	.loc 1 2567 17
	nop
.L374:
	.loc 1 2635 11
	ldr	r3, [sp, #12]
	ldr	r2, [r3, #8]
	.loc 1 2635 22
	ldr	r3, [sp, #12]
	ldr	r3, [r3, #12]
	.loc 1 2635 8
	cmp	r2, r3
	bls	.L388
	.loc 1 2635 45 discriminator 1
	ldr	r3, [sp, #12]
	ldr	r2, [r3, #8]
	.loc 1 2635 41 discriminator 1
	ldr	r3, [sp, #12]
	str	r2, [r3, #12]
.L388:
	.loc 1 2636 14
	ldr	r3, [sp, #12]
	ldrb	r3, [r3, #6]	@ zero_extendqisi2
	orr	r3, r3, #32
	uxtb	r2, r3
	ldr	r3, [sp, #12]
	strb	r2, [r3, #6]
	.loc 1 2638 5
	movs	r3, #0
.L363:
	.loc 1 2639 1
	mov	r0, r3
	add	sp, sp, #44
.LCFI88:
	@ sp needed
	ldr	pc, [sp], #4
.LFE32:
	.size	f_write, .-f_write
	.section	.text.f_sync,"ax",%progbits
	.align	1
	.global	f_sync
	.syntax unified
	.thumb
	.thumb_func
	.fpu fpv5-d16
	.type	f_sync, %function
f_sync:
.LFB33:
	.loc 1 2648 1
	@ args = 0, pretend = 0, frame = 24
	@ frame_needed = 0, uses_anonymous_args = 0
	push	{lr}
.LCFI89:
	sub	sp, sp, #28
.LCFI90:
	str	r0, [sp, #4]
	.loc 1 2653 11
	ldr	r0, [sp, #4]
	bl	validate
	mov	r3, r0
	strb	r3, [sp, #23]
	.loc 1 2654 8
	ldrb	r3, [sp, #23]	@ zero_extendqisi2
	cmp	r3, #0
	bne	.L391
	.loc 1 2655 15
	ldr	r3, [sp, #4]
	ldrb	r3, [r3, #6]	@ zero_extendqisi2
	.loc 1 2655 22
	and	r3, r3, #32
	.loc 1 2655 12
	cmp	r3, #0
	beq	.L391
	.loc 1 2657 19
	ldr	r3, [sp, #4]
	ldrb	r3, [r3, #6]	@ zero_extendqisi2
	.loc 1 2657 26
	and	r3, r3, #64
	.loc 1 2657 16
	cmp	r3, #0
	beq	.L392
	.loc 1 2658 34
	ldr	r3, [sp, #4]
	ldr	r3, [r3]
	.loc 1 2658 21
	ldrb	r0, [r3, #1]	@ zero_extendqisi2
	.loc 1 2658 47
	ldr	r3, [sp, #4]
	add	r1, r3, #40
	.loc 1 2658 56
	ldr	r3, [sp, #4]
	ldr	r2, [r3, #24]
	.loc 1 2658 21
	movs	r3, #1
	bl	disk_write
	mov	r3, r0
	.loc 1 2658 20
	cmp	r3, #0
	beq	.L393
	.loc 1 2659 21
	movs	r3, #1
	b	.L394
.L393:
	.loc 1 2660 26
	ldr	r3, [sp, #4]
	ldrb	r3, [r3, #6]	@ zero_extendqisi2
	bic	r3, r3, #64
	uxtb	r2, r3
	ldr	r3, [sp, #4]
	strb	r2, [r3, #6]
.L392:
	.loc 1 2664 19
	ldr	r3, [sp, #4]
	ldr	r2, [r3]
	ldr	r3, [sp, #4]
	ldr	r3, [r3, #28]
	mov	r1, r3
	mov	r0, r2
	bl	move_window
	mov	r3, r0
	strb	r3, [sp, #23]
	.loc 1 2665 16
	ldrb	r3, [sp, #23]	@ zero_extendqisi2
	cmp	r3, #0
	bne	.L391
	.loc 1 2666 21
	ldr	r3, [sp, #4]
	ldr	r3, [r3, #32]
	str	r3, [sp, #16]
	.loc 1 2667 31
	ldr	r3, [sp, #16]
	adds	r3, r3, #11
	ldrb	r2, [r3]	@ zero_extendqisi2
	ldr	r3, [sp, #16]
	adds	r3, r3, #11
	orr	r2, r2, #32
	uxtb	r2, r2
	strb	r2, [r3]
	.loc 1 2668 17
	ldr	r3, [sp, #4]
	ldr	r2, [r3, #12]
	ldr	r3, [sp, #16]
	adds	r3, r3, #28
	uxtb	r2, r2
	strb	r2, [r3]
	ldr	r3, [sp, #4]
	ldr	r3, [r3, #12]
	uxth	r3, r3
	lsrs	r3, r3, #8
	uxth	r2, r3
	ldr	r3, [sp, #16]
	adds	r3, r3, #29
	uxtb	r2, r2
	strb	r2, [r3]
	ldr	r3, [sp, #4]
	ldr	r3, [r3, #12]
	lsrs	r2, r3, #16
	ldr	r3, [sp, #16]
	adds	r3, r3, #30
	uxtb	r2, r2
	strb	r2, [r3]
	ldr	r3, [sp, #4]
	ldr	r3, [r3, #12]
	lsrs	r2, r3, #24
	ldr	r3, [sp, #16]
	adds	r3, r3, #31
	uxtb	r2, r2
	strb	r2, [r3]
	.loc 1 2669 17
	ldr	r3, [sp, #4]
	ldr	r3, [r3, #16]
	mov	r1, r3
	ldr	r0, [sp, #16]
	bl	st_clust
	.loc 1 2670 22
	bl	get_fattime
	str	r0, [sp, #12]
	.loc 1 2671 17
	ldr	r3, [sp, #16]
	adds	r3, r3, #22
	ldr	r2, [sp, #12]
	uxtb	r2, r2
	strb	r2, [r3]
	ldr	r3, [sp, #12]
	uxth	r3, r3
	lsrs	r3, r3, #8
	uxth	r2, r3
	ldr	r3, [sp, #16]
	adds	r3, r3, #23
	uxtb	r2, r2
	strb	r2, [r3]
	ldr	r3, [sp, #12]
	lsrs	r2, r3, #16
	ldr	r3, [sp, #16]
	adds	r3, r3, #24
	uxtb	r2, r2
	strb	r2, [r3]
	ldr	r3, [sp, #12]
	lsrs	r2, r3, #24
	ldr	r3, [sp, #16]
	adds	r3, r3, #25
	uxtb	r2, r2
	strb	r2, [r3]
	.loc 1 2672 17
	ldr	r3, [sp, #16]
	adds	r3, r3, #18
	movs	r2, #0
	strb	r2, [r3]
	ldr	r3, [sp, #16]
	adds	r3, r3, #19
	movs	r2, #0
	strb	r2, [r3]
	.loc 1 2673 26
	ldr	r3, [sp, #4]
	ldrb	r3, [r3, #6]	@ zero_extendqisi2
	bic	r3, r3, #32
	uxtb	r2, r3
	ldr	r3, [sp, #4]
	strb	r2, [r3, #6]
	.loc 1 2674 19
	ldr	r3, [sp, #4]
	ldr	r3, [r3]
	.loc 1 2674 31
	movs	r2, #1
	strb	r2, [r3, #4]
	.loc 1 2675 23
	ldr	r3, [sp, #4]
	ldr	r3, [r3]
	mov	r0, r3
	bl	sync_fs
	mov	r3, r0
	strb	r3, [sp, #23]
.L391:
	.loc 1 2680 5
	ldrb	r3, [sp, #23]	@ zero_extendqisi2
.L394:
	.loc 1 2681 1
	mov	r0, r3
	add	sp, sp, #28
.LCFI91:
	@ sp needed
	ldr	pc, [sp], #4
.LFE33:
	.size	f_sync, .-f_sync
	.section	.text.f_close,"ax",%progbits
	.align	1
	.global	f_close
	.syntax unified
	.thumb
	.thumb_func
	.fpu fpv5-d16
	.type	f_close, %function
f_close:
.LFB34:
	.loc 1 2692 1
	@ args = 0, pretend = 0, frame = 16
	@ frame_needed = 0, uses_anonymous_args = 0
	push	{lr}
.LCFI92:
	sub	sp, sp, #20
.LCFI93:
	str	r0, [sp, #4]
	.loc 1 2696 11
	ldr	r0, [sp, #4]
	bl	f_sync
	mov	r3, r0
	strb	r3, [sp, #15]
	.loc 1 2697 8
	ldrb	r3, [sp, #15]	@ zero_extendqisi2
	cmp	r3, #0
	bne	.L396
	.loc 1 2700 15
	ldr	r0, [sp, #4]
	bl	validate
	mov	r3, r0
	strb	r3, [sp, #15]
	.loc 1 2701 12
	ldrb	r3, [sp, #15]	@ zero_extendqisi2
	cmp	r3, #0
	bne	.L396
	.loc 1 2709 24
	ldr	r3, [sp, #4]
	movs	r2, #0
	str	r2, [r3]
.L396:
	.loc 1 2715 12
	ldrb	r3, [sp, #15]	@ zero_extendqisi2
	.loc 1 2716 1
	mov	r0, r3
	add	sp, sp, #20
.LCFI94:
	@ sp needed
	ldr	pc, [sp], #4
.LFE34:
	.size	f_close, .-f_close
	.section	.text.f_chdrive,"ax",%progbits
	.align	1
	.global	f_chdrive
	.syntax unified
	.thumb
	.thumb_func
	.fpu fpv5-d16
	.type	f_chdrive, %function
f_chdrive:
.LFB35:
	.loc 1 2727 1
	@ args = 0, pretend = 0, frame = 16
	@ frame_needed = 0, uses_anonymous_args = 0
	push	{lr}
.LCFI95:
	sub	sp, sp, #20
.LCFI96:
	str	r0, [sp, #4]
	.loc 1 2730 11
	add	r3, sp, #4
	mov	r0, r3
	bl	get_ldnumber
	str	r0, [sp, #12]
	.loc 1 2731 8
	ldr	r3, [sp, #12]
	cmp	r3, #0
	bge	.L399
	.loc 1 2731 25 discriminator 1
	movs	r3, #11
	b	.L400
.L399:
	.loc 1 2733 15
	ldr	r3, [sp, #12]
	uxtb	r2, r3
	.loc 1 2733 13
	ldr	r3, .L401
	strb	r2, [r3]
	.loc 1 2735 12
	movs	r3, #0
.L400:
	.loc 1 2736 1
	mov	r0, r3
	add	sp, sp, #20
.LCFI97:
	@ sp needed
	ldr	pc, [sp], #4
.L402:
	.align	2
.L401:
	.word	CurrVol
.LFE35:
	.size	f_chdrive, .-f_chdrive
	.section	.text.f_chdir,"ax",%progbits
	.align	1
	.global	f_chdir
	.syntax unified
	.thumb
	.thumb_func
	.fpu fpv5-d16
	.type	f_chdir, %function
f_chdir:
.LFB36:
	.loc 1 2742 1
	@ args = 0, pretend = 0, frame = 56
	@ frame_needed = 0, uses_anonymous_args = 0
	push	{r4, lr}
.LCFI98:
	sub	sp, sp, #56
.LCFI99:
	str	r0, [sp, #4]
	.loc 1 2748 11
	add	r1, sp, #4
	add	r3, sp, #24
	movs	r2, #0
	mov	r0, r3
	bl	find_volume
	mov	r3, r0
	strb	r3, [sp, #55]
	.loc 1 2749 8
	ldrb	r3, [sp, #55]	@ zero_extendqisi2
	cmp	r3, #0
	bne	.L404
	.loc 1 2750 9
	add	r3, sp, #12
	str	r3, [sp, #48]
	.loc 1 2751 15
	ldr	r2, [sp, #4]
	add	r3, sp, #24
	mov	r1, r2
	mov	r0, r3
	bl	follow_path
	mov	r3, r0
	strb	r3, [sp, #55]
	.loc 1 2753 12
	ldrb	r3, [sp, #55]	@ zero_extendqisi2
	cmp	r3, #0
	bne	.L405
	.loc 1 2754 20
	ldr	r3, [sp, #44]
	.loc 1 2754 16
	cmp	r3, #0
	bne	.L406
	.loc 1 2755 19
	ldr	r3, [sp, #24]
	.loc 1 2755 33
	ldr	r2, [sp, #32]
	.loc 1 2755 29
	str	r2, [r3, #20]
	b	.L405
.L406:
	.loc 1 2757 23
	ldr	r3, [sp, #44]
	.loc 1 2757 27
	adds	r3, r3, #11
	ldrb	r3, [r3]	@ zero_extendqisi2
	.loc 1 2757 38
	and	r3, r3, #16
	.loc 1 2757 20
	cmp	r3, #0
	beq	.L407
	.loc 1 2758 35
	ldr	r3, [sp, #24]
	.loc 1 2758 53
	ldr	r2, [sp, #44]
	.loc 1 2758 23
	ldr	r4, [sp, #24]
	.loc 1 2758 35
	mov	r1, r2
	mov	r0, r3
	bl	ld_clust
	mov	r3, r0
	.loc 1 2758 33
	str	r3, [r4, #20]
	b	.L405
.L407:
	.loc 1 2760 25
	movs	r3, #5
	strb	r3, [sp, #55]
.L405:
	.loc 1 2763 12
	ldrb	r3, [sp, #55]	@ zero_extendqisi2
	cmp	r3, #4
	bne	.L404
	.loc 1 2763 36 discriminator 1
	movs	r3, #5
	strb	r3, [sp, #55]
.L404:
	.loc 1 2766 5
	ldrb	r3, [sp, #55]	@ zero_extendqisi2
	.loc 1 2767 1
	mov	r0, r3
	add	sp, sp, #56
.LCFI100:
	@ sp needed
	pop	{r4, pc}
.LFE36:
	.size	f_chdir, .-f_chdir
	.section	.text.f_getcwd,"ax",%progbits
	.align	1
	.global	f_getcwd
	.syntax unified
	.thumb
	.thumb_func
	.fpu fpv5-d16
	.type	f_getcwd, %function
f_getcwd:
.LFB37:
	.loc 1 2774 1
	@ args = 0, pretend = 0, frame = 96
	@ frame_needed = 0, uses_anonymous_args = 0
	push	{lr}
.LCFI101:
	sub	sp, sp, #100
.LCFI102:
	str	r0, [sp, #4]
	str	r1, [sp]
	.loc 1 2783 5
	ldr	r3, [sp, #4]
	.loc 1 2783 11
	movs	r2, #0
	strb	r2, [r3]
	.loc 1 2785 11
	add	r1, sp, #4
	add	r3, sp, #48
	movs	r2, #0
	mov	r0, r3
	bl	find_volume
	mov	r3, r0
	strb	r3, [sp, #95]
	.loc 1 2786 8
	ldrb	r3, [sp, #95]	@ zero_extendqisi2
	cmp	r3, #0
	bne	.L410
	.loc 1 2787 9
	add	r3, sp, #12
	str	r3, [sp, #72]
	.loc 1 2788 11
	ldr	r3, [sp]
	str	r3, [sp, #88]
	.loc 1 2789 23
	ldr	r3, [sp, #48]
	.loc 1 2789 26
	ldr	r3, [r3, #20]
	.loc 1 2789 19
	str	r3, [sp, #56]
	.loc 1 2790 15
	b	.L411
.L426:
	.loc 1 2791 19
	add	r3, sp, #48
	movs	r1, #1
	mov	r0, r3
	bl	dir_sdi
	mov	r3, r0
	strb	r3, [sp, #95]
	.loc 1 2792 16
	ldrb	r3, [sp, #95]	@ zero_extendqisi2
	cmp	r3, #0
	bne	.L430
	.loc 1 2793 19
	add	r3, sp, #48
	movs	r1, #0
	mov	r0, r3
	bl	dir_read
	mov	r3, r0
	strb	r3, [sp, #95]
	.loc 1 2794 16
	ldrb	r3, [sp, #95]	@ zero_extendqisi2
	cmp	r3, #0
	bne	.L431
	.loc 1 2795 25
	ldr	r3, [sp, #48]
	.loc 1 2795 43
	ldr	r2, [sp, #68]
	.loc 1 2795 25
	mov	r1, r2
	mov	r0, r3
	bl	ld_clust
	mov	r3, r0
	.loc 1 2795 23
	str	r3, [sp, #56]
	.loc 1 2796 19
	add	r3, sp, #48
	movs	r1, #0
	mov	r0, r3
	bl	dir_sdi
	mov	r3, r0
	strb	r3, [sp, #95]
	.loc 1 2797 16
	ldrb	r3, [sp, #95]	@ zero_extendqisi2
	cmp	r3, #0
	bne	.L432
.L415:
	.loc 1 2799 23
	add	r3, sp, #48
	movs	r1, #0
	mov	r0, r3
	bl	dir_read
	mov	r3, r0
	strb	r3, [sp, #95]
	.loc 1 2800 20
	ldrb	r3, [sp, #95]	@ zero_extendqisi2
	cmp	r3, #0
	bne	.L433
	.loc 1 2801 28
	ldr	r3, [sp, #48]
	.loc 1 2801 46
	ldr	r2, [sp, #68]
	.loc 1 2801 28
	mov	r1, r2
	mov	r0, r3
	bl	ld_clust
	mov	r2, r0
	.loc 1 2801 20
	ldr	r3, [sp, #76]
	cmp	r3, r2
	beq	.L434
	.loc 1 2802 23
	add	r3, sp, #48
	movs	r1, #0
	mov	r0, r3
	bl	dir_next
	mov	r3, r0
	strb	r3, [sp, #95]
	.loc 1 2803 13
	ldrb	r3, [sp, #95]	@ zero_extendqisi2
	cmp	r3, #0
	beq	.L415
	b	.L417
.L433:
	.loc 1 2800 17
	nop
	b	.L417
.L434:
	.loc 1 2801 17
	nop
.L417:
	.loc 1 2804 16
	ldrb	r3, [sp, #95]	@ zero_extendqisi2
	cmp	r3, #4
	bne	.L419
	.loc 1 2804 40 discriminator 1
	movs	r3, #2
	strb	r3, [sp, #95]
.L419:
	.loc 1 2805 16
	ldrb	r3, [sp, #95]	@ zero_extendqisi2
	cmp	r3, #0
	bne	.L435
	.loc 1 2810 13
	add	r2, sp, #24
	add	r3, sp, #48
	mov	r1, r2
	mov	r0, r3
	bl	get_fileinfo
	.loc 1 2811 16
	add	r3, sp, #24
	adds	r3, r3, #9
	str	r3, [sp, #80]
	.loc 1 2815 20
	movs	r3, #0
	str	r3, [sp, #84]
	.loc 1 2815 13
	b	.L421
.L422:
	.loc 1 2815 33 discriminator 3
	ldr	r3, [sp, #84]
	adds	r3, r3, #1
	str	r3, [sp, #84]
.L421:
	.loc 1 2815 27 discriminator 1
	ldr	r2, [sp, #80]
	ldr	r3, [sp, #84]
	add	r3, r3, r2
	ldrb	r3, [r3]	@ zero_extendqisi2
	.loc 1 2815 13 discriminator 1
	cmp	r3, #0
	bne	.L422
	.loc 1 2816 23
	ldr	r3, [sp, #84]
	adds	r3, r3, #3
	.loc 1 2816 16
	ldr	r2, [sp, #88]
	cmp	r2, r3
	bcs	.L424
	.loc 1 2817 21
	movs	r3, #17
	strb	r3, [sp, #95]
	.loc 1 2817 17
	b	.L413
.L425:
	.loc 1 2819 33 discriminator 2
	ldr	r3, [sp, #84]
	subs	r3, r3, #1
	str	r3, [sp, #84]
	.loc 1 2819 37 discriminator 2
	ldr	r2, [sp, #80]
	ldr	r3, [sp, #84]
	add	r2, r2, r3
	.loc 1 2819 27 discriminator 2
	ldr	r1, [sp, #4]
	.loc 1 2819 33 discriminator 2
	ldr	r3, [sp, #88]
	subs	r3, r3, #1
	str	r3, [sp, #88]
	.loc 1 2819 27 discriminator 2
	ldr	r3, [sp, #88]
	add	r3, r3, r1
	.loc 1 2819 37 discriminator 2
	ldrb	r2, [r2]	@ zero_extendqisi2
	.loc 1 2819 33 discriminator 2
	strb	r2, [r3]
.L424:
	.loc 1 2819 19 discriminator 1
	ldr	r3, [sp, #84]
	cmp	r3, #0
	bne	.L425
	.loc 1 2820 17
	ldr	r2, [sp, #4]
	.loc 1 2820 23
	ldr	r3, [sp, #88]
	subs	r3, r3, #1
	str	r3, [sp, #88]
	.loc 1 2820 17
	ldr	r3, [sp, #88]
	add	r3, r3, r2
	.loc 1 2820 23
	movs	r2, #47
	strb	r2, [r3]
.L411:
	.loc 1 2790 21
	ldr	r3, [sp, #56]
	str	r3, [sp, #76]
	.loc 1 2790 15
	ldr	r3, [sp, #76]
	cmp	r3, #0
	bne	.L426
	b	.L413
.L430:
	.loc 1 2792 13
	nop
	b	.L413
.L431:
	.loc 1 2794 13
	nop
	b	.L413
.L432:
	.loc 1 2797 13
	nop
	b	.L413
.L435:
	.loc 1 2805 13
	nop
.L413:
	.loc 1 2822 12
	ldr	r3, [sp, #4]
	str	r3, [sp, #80]
	.loc 1 2823 12
	ldrb	r3, [sp, #95]	@ zero_extendqisi2
	cmp	r3, #0
	bne	.L427
	.loc 1 2825 25
	ldr	r3, .L436
	ldrb	r2, [r3]	@ zero_extendqisi2
	.loc 1 2825 16
	ldr	r3, [sp, #80]
	adds	r1, r3, #1
	str	r1, [sp, #80]
	.loc 1 2825 25
	adds	r2, r2, #48
	uxtb	r2, r2
	.loc 1 2825 19
	strb	r2, [r3]
	.loc 1 2826 16
	ldr	r3, [sp, #80]
	adds	r2, r3, #1
	str	r2, [sp, #80]
	.loc 1 2826 19
	movs	r2, #58
	strb	r2, [r3]
	.loc 1 2828 16
	ldr	r2, [sp, #88]
	ldr	r3, [sp]
	cmp	r2, r3
	bne	.L428
	.loc 1 2829 20
	ldr	r3, [sp, #80]
	adds	r2, r3, #1
	str	r2, [sp, #80]
	.loc 1 2829 23
	movs	r2, #47
	strb	r2, [r3]
	b	.L427
.L428:
	.loc 1 2832 33 discriminator 1
	ldr	r2, [sp, #4]
	.loc 1 2832 35 discriminator 1
	ldr	r3, [sp, #88]
	adds	r1, r3, #1
	str	r1, [sp, #88]
	.loc 1 2832 33 discriminator 1
	add	r2, r2, r3
	.loc 1 2832 24 discriminator 1
	ldr	r3, [sp, #80]
	adds	r1, r3, #1
	str	r1, [sp, #80]
	.loc 1 2832 33 discriminator 1
	ldrb	r2, [r2]	@ zero_extendqisi2
	.loc 1 2832 27 discriminator 1
	strb	r2, [r3]
	.loc 1 2833 17 discriminator 1
	ldr	r2, [sp, #88]
	ldr	r3, [sp]
	cmp	r2, r3
	bcc	.L428
.L427:
	.loc 1 2836 13
	ldr	r3, [sp, #80]
	movs	r2, #0
	strb	r2, [r3]
.L410:
	.loc 1 2840 5
	ldrb	r3, [sp, #95]	@ zero_extendqisi2
	.loc 1 2841 1
	mov	r0, r3
	add	sp, sp, #100
.LCFI103:
	@ sp needed
	ldr	pc, [sp], #4
.L437:
	.align	2
.L436:
	.word	CurrVol
.LFE37:
	.size	f_getcwd, .-f_getcwd
	.section	.text.f_lseek,"ax",%progbits
	.align	1
	.global	f_lseek
	.syntax unified
	.thumb
	.thumb_func
	.fpu fpv5-d16
	.type	f_lseek, %function
f_lseek:
.LFB38:
	.loc 1 2854 1
	@ args = 0, pretend = 0, frame = 64
	@ frame_needed = 0, uses_anonymous_args = 0
	push	{lr}
.LCFI104:
	sub	sp, sp, #68
.LCFI105:
	str	r0, [sp, #4]
	str	r1, [sp]
	.loc 1 2861 11
	ldr	r0, [sp, #4]
	bl	validate
	mov	r3, r0
	strb	r3, [sp, #63]
	.loc 1 2862 8
	ldrb	r3, [sp, #63]	@ zero_extendqisi2
	cmp	r3, #0
	beq	.L439
	.loc 1 2862 23 discriminator 1
	ldrb	r3, [sp, #63]	@ zero_extendqisi2
	b	.L440
.L439:
	.loc 1 2863 11
	ldr	r3, [sp, #4]
	ldrb	r3, [r3, #7]	@ zero_extendqisi2
	.loc 1 2863 8
	cmp	r3, #0
	beq	.L441
	.loc 1 2864 9
	ldr	r3, [sp, #4]
	ldrb	r3, [r3, #7]	@ zero_extendqisi2
	b	.L440
.L441:
	.loc 1 2867 11
	ldr	r3, [sp, #4]
	ldr	r3, [r3, #36]
	.loc 1 2867 8
	cmp	r3, #0
	beq	.L442
	.loc 1 2868 12
	ldr	r3, [sp]
	cmp	r3, #-1
	bne	.L443
	.loc 1 2869 17
	ldr	r3, [sp, #4]
	ldr	r3, [r3, #36]
	str	r3, [sp, #36]
	.loc 1 2870 24
	ldr	r3, [sp, #36]
	adds	r2, r3, #4
	str	r2, [sp, #36]
	.loc 1 2870 18
	ldr	r3, [r3]
	str	r3, [sp, #20]
	.loc 1 2870 33
	movs	r3, #2
	str	r3, [sp, #40]
	.loc 1 2871 16
	ldr	r3, [sp, #4]
	ldr	r3, [r3, #16]
	str	r3, [sp, #48]
	.loc 1 2872 16
	ldr	r3, [sp, #48]
	cmp	r3, #0
	beq	.L444
.L449:
	.loc 1 2875 25
	ldr	r3, [sp, #48]
	str	r3, [sp, #16]
	.loc 1 2875 35
	movs	r3, #0
	str	r3, [sp, #44]
	.loc 1 2875 45
	ldr	r3, [sp, #40]
	adds	r3, r3, #2
	str	r3, [sp, #40]
.L447:
	.loc 1 2877 29
	ldr	r3, [sp, #48]
	str	r3, [sp, #12]
	.loc 1 2877 38
	ldr	r3, [sp, #44]
	adds	r3, r3, #1
	str	r3, [sp, #44]
	.loc 1 2878 30
	ldr	r3, [sp, #4]
	ldr	r3, [r3]
	ldr	r1, [sp, #48]
	mov	r0, r3
	bl	get_fat
	str	r0, [sp, #48]
	.loc 1 2879 28
	ldr	r3, [sp, #48]
	cmp	r3, #1
	bhi	.L445
	.loc 1 2879 38 discriminator 1
	ldr	r3, [sp, #4]
	movs	r2, #2
	strb	r2, [r3, #7]
	movs	r3, #2
	b	.L440
.L445:
	.loc 1 2880 28
	ldr	r3, [sp, #48]
	cmp	r3, #-1
	bne	.L446
	.loc 1 2880 47 discriminator 1
	ldr	r3, [sp, #4]
	movs	r2, #1
	strb	r2, [r3, #7]
	movs	r3, #1
	b	.L440
.L446:
	.loc 1 2881 40
	ldr	r3, [sp, #12]
	adds	r3, r3, #1
	.loc 1 2881 21
	ldr	r2, [sp, #48]
	cmp	r2, r3
	beq	.L447
	.loc 1 2882 24
	ldr	r2, [sp, #40]
	ldr	r3, [sp, #20]
	cmp	r2, r3
	bhi	.L448
	.loc 1 2883 29
	ldr	r3, [sp, #36]
	adds	r2, r3, #4
	str	r2, [sp, #36]
	.loc 1 2883 32
	ldr	r2, [sp, #44]
	str	r2, [r3]
	.loc 1 2883 43
	ldr	r3, [sp, #36]
	adds	r2, r3, #4
	str	r2, [sp, #36]
	.loc 1 2883 46
	ldr	r2, [sp, #16]
	str	r2, [r3]
.L448:
	.loc 1 2885 33
	ldr	r3, [sp, #4]
	ldr	r3, [r3]
	.loc 1 2885 37
	ldr	r3, [r3, #24]
	.loc 1 2885 17
	ldr	r2, [sp, #48]
	cmp	r2, r3
	bcc	.L449
.L444:
	.loc 1 2887 16
	ldr	r3, [sp, #4]
	ldr	r3, [r3, #36]
	.loc 1 2887 24
	ldr	r2, [sp, #40]
	str	r2, [r3]
	.loc 1 2888 16
	ldr	r2, [sp, #40]
	ldr	r3, [sp, #20]
	cmp	r2, r3
	bhi	.L450
	.loc 1 2889 22
	ldr	r3, [sp, #36]
	movs	r2, #0
	str	r2, [r3]
	b	.L451
.L450:
	.loc 1 2891 21
	movs	r3, #17
	strb	r3, [sp, #63]
	b	.L451
.L443:
	.loc 1 2894 25
	ldr	r3, [sp, #4]
	ldr	r3, [r3, #12]
	.loc 1 2894 16
	ldr	r2, [sp]
	cmp	r2, r3
	bls	.L452
	.loc 1 2895 21
	ldr	r3, [sp, #4]
	ldr	r3, [r3, #12]
	str	r3, [sp]
.L452:
	.loc 1 2896 22
	ldr	r3, [sp, #4]
	ldr	r2, [sp]
	str	r2, [r3, #8]
	.loc 1 2897 16
	ldr	r3, [sp]
	cmp	r3, #0
	beq	.L451
	.loc 1 2898 29
	ldr	r3, [sp]
	subs	r3, r3, #1
	mov	r1, r3
	ldr	r0, [sp, #4]
	bl	clmt_clust
	mov	r2, r0
	.loc 1 2898 27
	ldr	r3, [sp, #4]
	str	r2, [r3, #20]
	.loc 1 2899 23
	ldr	r3, [sp, #4]
	ldr	r2, [r3]
	ldr	r3, [sp, #4]
	ldr	r3, [r3, #20]
	mov	r1, r3
	mov	r0, r2
	bl	clust2sect
	str	r0, [sp, #24]
	.loc 1 2900 20
	ldr	r3, [sp, #24]
	cmp	r3, #0
	bne	.L453
	.loc 1 2900 27 discriminator 1
	ldr	r3, [sp, #4]
	movs	r2, #2
	strb	r2, [r3, #7]
	movs	r3, #2
	b	.L440
.L453:
	.loc 1 2901 29
	ldr	r3, [sp]
	subs	r3, r3, #1
	.loc 1 2901 34
	lsrs	r3, r3, #9
	.loc 1 2901 52
	ldr	r2, [sp, #4]
	ldr	r2, [r2]
	.loc 1 2901 56
	ldrb	r2, [r2, #2]	@ zero_extendqisi2
	.loc 1 2901 64
	subs	r2, r2, #1
	.loc 1 2901 47
	ands	r3, r3, r2
	.loc 1 2901 21
	ldr	r2, [sp, #24]
	add	r3, r3, r2
	str	r3, [sp, #24]
	.loc 1 2902 23
	ldr	r3, [sp, #4]
	ldr	r3, [r3, #8]
	.loc 1 2902 30
	ubfx	r3, r3, #0, #9
	.loc 1 2902 20
	cmp	r3, #0
	beq	.L451
	.loc 1 2902 55 discriminator 1
	ldr	r3, [sp, #4]
	ldr	r3, [r3, #24]
	.loc 1 2902 43 discriminator 1
	ldr	r2, [sp, #24]
	cmp	r2, r3
	beq	.L451
	.loc 1 2905 27
	ldr	r3, [sp, #4]
	ldrb	r3, [r3, #6]	@ zero_extendqisi2
	.loc 1 2905 34
	and	r3, r3, #64
	.loc 1 2905 24
	cmp	r3, #0
	beq	.L454
	.loc 1 2906 42
	ldr	r3, [sp, #4]
	ldr	r3, [r3]
	.loc 1 2906 29
	ldrb	r0, [r3, #1]	@ zero_extendqisi2
	.loc 1 2906 55
	ldr	r3, [sp, #4]
	add	r1, r3, #40
	.loc 1 2906 64
	ldr	r3, [sp, #4]
	ldr	r2, [r3, #24]
	.loc 1 2906 29
	movs	r3, #1
	bl	disk_write
	mov	r3, r0
	.loc 1 2906 28
	cmp	r3, #0
	beq	.L455
	.loc 1 2907 29
	ldr	r3, [sp, #4]
	movs	r2, #1
	strb	r2, [r3, #7]
	movs	r3, #1
	b	.L440
.L455:
	.loc 1 2908 34
	ldr	r3, [sp, #4]
	ldrb	r3, [r3, #6]	@ zero_extendqisi2
	bic	r3, r3, #64
	uxtb	r2, r3
	ldr	r3, [sp, #4]
	strb	r2, [r3, #6]
.L454:
	.loc 1 2911 37
	ldr	r3, [sp, #4]
	ldr	r3, [r3]
	.loc 1 2911 25
	ldrb	r0, [r3, #1]	@ zero_extendqisi2
	.loc 1 2911 50
	ldr	r3, [sp, #4]
	add	r1, r3, #40
	.loc 1 2911 25
	movs	r3, #1
	ldr	r2, [sp, #24]
	bl	disk_read
	mov	r3, r0
	.loc 1 2911 24
	cmp	r3, #0
	beq	.L456
	.loc 1 2912 25
	ldr	r3, [sp, #4]
	movs	r2, #1
	strb	r2, [r3, #7]
	movs	r3, #1
	b	.L440
.L456:
	.loc 1 2914 31
	ldr	r3, [sp, #4]
	ldr	r2, [sp, #24]
	str	r2, [r3, #24]
	b	.L451
.L442:
	.loc 1 2923 21
	ldr	r3, [sp, #4]
	ldr	r3, [r3, #12]
	.loc 1 2923 12
	ldr	r2, [sp]
	cmp	r2, r3
	bls	.L457
	.loc 1 2925 21
	ldr	r3, [sp, #4]
	ldrb	r3, [r3, #6]	@ zero_extendqisi2
	.loc 1 2925 28
	and	r3, r3, #2
	.loc 1 2925 14
	cmp	r3, #0
	bne	.L457
	.loc 1 2927 19
	ldr	r3, [sp, #4]
	ldr	r3, [r3, #12]
	str	r3, [sp]
.L457:
	.loc 1 2929 15
	ldr	r3, [sp, #4]
	ldr	r3, [r3, #8]
	str	r3, [sp, #32]
	.loc 1 2930 26
	movs	r3, #0
	str	r3, [sp, #52]
	.loc 1 2930 18
	ldr	r3, [sp, #4]
	ldr	r2, [sp, #52]
	str	r2, [r3, #8]
	.loc 1 2931 12
	ldr	r3, [sp]
	cmp	r3, #0
	beq	.L458
	.loc 1 2932 28
	ldr	r3, [sp, #4]
	ldr	r3, [r3]
	.loc 1 2932 32
	ldrb	r3, [r3, #2]	@ zero_extendqisi2
	.loc 1 2932 17
	lsls	r3, r3, #9
	str	r3, [sp, #28]
	.loc 1 2933 16
	ldr	r3, [sp, #32]
	cmp	r3, #0
	beq	.L459
	.loc 1 2934 22 discriminator 1
	ldr	r3, [sp]
	subs	r2, r3, #1
	.loc 1 2934 27 discriminator 1
	ldr	r3, [sp, #28]
	udiv	r2, r2, r3
	.loc 1 2934 43 discriminator 1
	ldr	r3, [sp, #32]
	subs	r1, r3, #1
	.loc 1 2934 48 discriminator 1
	ldr	r3, [sp, #28]
	udiv	r3, r1, r3
	.loc 1 2933 27 discriminator 1
	cmp	r2, r3
	bcc	.L459
	.loc 1 2935 35
	ldr	r3, [sp, #32]
	subs	r2, r3, #1
	.loc 1 2935 42
	ldr	r3, [sp, #28]
	rsbs	r3, r3, #0
	.loc 1 2935 40
	ands	r2, r2, r3
	.loc 1 2935 26
	ldr	r3, [sp, #4]
	str	r2, [r3, #8]
	.loc 1 2936 26
	ldr	r3, [sp, #4]
	ldr	r3, [r3, #8]
	.loc 1 2936 21
	ldr	r2, [sp]
	subs	r3, r2, r3
	str	r3, [sp]
	.loc 1 2937 22
	ldr	r3, [sp, #4]
	ldr	r3, [r3, #20]
	str	r3, [sp, #56]
	b	.L460
.L459:
	.loc 1 2939 22
	ldr	r3, [sp, #4]
	ldr	r3, [r3, #16]
	str	r3, [sp, #56]
	.loc 1 2941 20
	ldr	r3, [sp, #56]
	cmp	r3, #0
	bne	.L461
	.loc 1 2942 28
	ldr	r3, [sp, #4]
	ldr	r3, [r3]
	movs	r1, #0
	mov	r0, r3
	bl	create_chain
	str	r0, [sp, #56]
	.loc 1 2943 24
	ldr	r3, [sp, #56]
	cmp	r3, #1
	bne	.L462
	.loc 1 2943 36 discriminator 1
	ldr	r3, [sp, #4]
	movs	r2, #2
	strb	r2, [r3, #7]
	movs	r3, #2
	b	.L440
.L462:
	.loc 1 2944 24
	ldr	r3, [sp, #56]
	cmp	r3, #-1
	bne	.L463
	.loc 1 2944 45 discriminator 1
	ldr	r3, [sp, #4]
	movs	r2, #1
	strb	r2, [r3, #7]
	movs	r3, #1
	b	.L440
.L463:
	.loc 1 2945 32
	ldr	r3, [sp, #4]
	ldr	r2, [sp, #56]
	str	r2, [r3, #16]
.L461:
	.loc 1 2948 27
	ldr	r3, [sp, #4]
	ldr	r2, [sp, #56]
	str	r2, [r3, #20]
.L460:
	.loc 1 2950 16
	ldr	r3, [sp, #56]
	cmp	r3, #0
	beq	.L458
	.loc 1 2951 23
	b	.L464
.L471:
	.loc 1 2953 27
	ldr	r3, [sp, #4]
	ldrb	r3, [r3, #6]	@ zero_extendqisi2
	.loc 1 2953 34
	and	r3, r3, #2
	.loc 1 2953 24
	cmp	r3, #0
	beq	.L465
	.loc 1 2954 32
	ldr	r3, [sp, #4]
	ldr	r3, [r3]
	ldr	r1, [sp, #56]
	mov	r0, r3
	bl	create_chain
	str	r0, [sp, #56]
	.loc 1 2955 28
	ldr	r3, [sp, #56]
	cmp	r3, #0
	bne	.L466
	.loc 1 2956 33
	ldr	r3, [sp, #28]
	str	r3, [sp]
	.loc 1 2956 29
	b	.L467
.L465:
	.loc 1 2960 32
	ldr	r3, [sp, #4]
	ldr	r3, [r3]
	ldr	r1, [sp, #56]
	mov	r0, r3
	bl	get_fat
	str	r0, [sp, #56]
.L466:
	.loc 1 2961 24
	ldr	r3, [sp, #56]
	cmp	r3, #-1
	bne	.L468
	.loc 1 2961 45 discriminator 1
	ldr	r3, [sp, #4]
	movs	r2, #1
	strb	r2, [r3, #7]
	movs	r3, #1
	b	.L440
.L468:
	.loc 1 2962 24
	ldr	r3, [sp, #56]
	cmp	r3, #1
	bls	.L469
	.loc 1 2962 48 discriminator 2
	ldr	r3, [sp, #4]
	ldr	r3, [r3]
	.loc 1 2962 52 discriminator 2
	ldr	r3, [r3, #24]
	.loc 1 2962 35 discriminator 2
	ldr	r2, [sp, #56]
	cmp	r2, r3
	bcc	.L470
.L469:
	.loc 1 2962 64 discriminator 3
	ldr	r3, [sp, #4]
	movs	r2, #2
	strb	r2, [r3, #7]
	movs	r3, #2
	b	.L440
.L470:
	.loc 1 2963 31
	ldr	r3, [sp, #4]
	ldr	r2, [sp, #56]
	str	r2, [r3, #20]
	.loc 1 2964 30
	ldr	r3, [sp, #4]
	ldr	r2, [r3, #8]
	ldr	r3, [sp, #28]
	add	r2, r2, r3
	ldr	r3, [sp, #4]
	str	r2, [r3, #8]
	.loc 1 2965 25
	ldr	r2, [sp]
	ldr	r3, [sp, #28]
	subs	r3, r2, r3
	str	r3, [sp]
.L464:
	.loc 1 2951 23
	ldr	r2, [sp]
	ldr	r3, [sp, #28]
	cmp	r2, r3
	bhi	.L471
.L467:
	.loc 1 2967 26
	ldr	r3, [sp, #4]
	ldr	r2, [r3, #8]
	ldr	r3, [sp]
	add	r2, r2, r3
	ldr	r3, [sp, #4]
	str	r2, [r3, #8]
	.loc 1 2968 25
	ldr	r3, [sp]
	ubfx	r3, r3, #0, #9
	.loc 1 2968 20
	cmp	r3, #0
	beq	.L458
	.loc 1 2969 29
	ldr	r3, [sp, #4]
	ldr	r3, [r3]
	ldr	r1, [sp, #56]
	mov	r0, r3
	bl	clust2sect
	str	r0, [sp, #52]
	.loc 1 2970 24
	ldr	r3, [sp, #52]
	cmp	r3, #0
	bne	.L472
	.loc 1 2970 33 discriminator 1
	ldr	r3, [sp, #4]
	movs	r2, #2
	strb	r2, [r3, #7]
	movs	r3, #2
	b	.L440
.L472:
	.loc 1 2971 34
	ldr	r3, [sp]
	lsrs	r3, r3, #9
	.loc 1 2971 27
	ldr	r2, [sp, #52]
	add	r3, r3, r2
	str	r3, [sp, #52]
.L458:
	.loc 1 2975 15
	ldr	r3, [sp, #4]
	ldr	r3, [r3, #8]
	.loc 1 2975 22
	ubfx	r3, r3, #0, #9
	.loc 1 2975 12
	cmp	r3, #0
	beq	.L473
	.loc 1 2975 49 discriminator 1
	ldr	r3, [sp, #4]
	ldr	r3, [r3, #24]
	.loc 1 2975 35 discriminator 1
	ldr	r2, [sp, #52]
	cmp	r2, r3
	beq	.L473
	.loc 1 2978 19
	ldr	r3, [sp, #4]
	ldrb	r3, [r3, #6]	@ zero_extendqisi2
	.loc 1 2978 26
	and	r3, r3, #64
	.loc 1 2978 16
	cmp	r3, #0
	beq	.L474
	.loc 1 2979 34
	ldr	r3, [sp, #4]
	ldr	r3, [r3]
	.loc 1 2979 21
	ldrb	r0, [r3, #1]	@ zero_extendqisi2
	.loc 1 2979 47
	ldr	r3, [sp, #4]
	add	r1, r3, #40
	.loc 1 2979 56
	ldr	r3, [sp, #4]
	ldr	r2, [r3, #24]
	.loc 1 2979 21
	movs	r3, #1
	bl	disk_write
	mov	r3, r0
	.loc 1 2979 20
	cmp	r3, #0
	beq	.L475
	.loc 1 2980 21
	ldr	r3, [sp, #4]
	movs	r2, #1
	strb	r2, [r3, #7]
	movs	r3, #1
	b	.L440
.L475:
	.loc 1 2981 26
	ldr	r3, [sp, #4]
	ldrb	r3, [r3, #6]	@ zero_extendqisi2
	bic	r3, r3, #64
	uxtb	r2, r3
	ldr	r3, [sp, #4]
	strb	r2, [r3, #6]
.L474:
	.loc 1 2984 29
	ldr	r3, [sp, #4]
	ldr	r3, [r3]
	.loc 1 2984 17
	ldrb	r0, [r3, #1]	@ zero_extendqisi2
	.loc 1 2984 42
	ldr	r3, [sp, #4]
	add	r1, r3, #40
	.loc 1 2984 17
	movs	r3, #1
	ldr	r2, [sp, #52]
	bl	disk_read
	mov	r3, r0
	.loc 1 2984 16
	cmp	r3, #0
	beq	.L476
	.loc 1 2985 17
	ldr	r3, [sp, #4]
	movs	r2, #1
	strb	r2, [r3, #7]
	movs	r3, #1
	b	.L440
.L476:
	.loc 1 2987 23
	ldr	r3, [sp, #4]
	ldr	r2, [sp, #52]
	str	r2, [r3, #24]
.L473:
	.loc 1 2990 15
	ldr	r3, [sp, #4]
	ldr	r2, [r3, #8]
	.loc 1 2990 26
	ldr	r3, [sp, #4]
	ldr	r3, [r3, #12]
	.loc 1 2990 12
	cmp	r2, r3
	bls	.L451
	.loc 1 2991 27
	ldr	r3, [sp, #4]
	ldr	r2, [r3, #8]
	.loc 1 2991 23
	ldr	r3, [sp, #4]
	str	r2, [r3, #12]
	.loc 1 2992 22
	ldr	r3, [sp, #4]
	ldrb	r3, [r3, #6]	@ zero_extendqisi2
	orr	r3, r3, #32
	uxtb	r2, r3
	ldr	r3, [sp, #4]
	strb	r2, [r3, #6]
.L451:
	.loc 1 2997 5
	ldrb	r3, [sp, #63]	@ zero_extendqisi2
.L440:
	.loc 1 2998 1
	mov	r0, r3
	add	sp, sp, #68
.LCFI106:
	@ sp needed
	ldr	pc, [sp], #4
.LFE38:
	.size	f_lseek, .-f_lseek
	.section	.text.f_opendir,"ax",%progbits
	.align	1
	.global	f_opendir
	.syntax unified
	.thumb
	.thumb_func
	.fpu fpv5-d16
	.type	f_opendir, %function
f_opendir:
.LFB39:
	.loc 1 3009 1
	@ args = 0, pretend = 0, frame = 32
	@ frame_needed = 0, uses_anonymous_args = 0
	push	{lr}
.LCFI107:
	sub	sp, sp, #36
.LCFI108:
	str	r0, [sp, #4]
	str	r1, [sp]
	.loc 1 3014 8
	ldr	r3, [sp, #4]
	cmp	r3, #0
	bne	.L478
	.loc 1 3014 21 discriminator 1
	movs	r3, #9
	b	.L485
.L478:
	.loc 1 3017 11
	mov	r1, sp
	add	r3, sp, #24
	movs	r2, #0
	mov	r0, r3
	bl	find_volume
	mov	r3, r0
	strb	r3, [sp, #31]
	.loc 1 3018 8
	ldrb	r3, [sp, #31]	@ zero_extendqisi2
	cmp	r3, #0
	bne	.L480
	.loc 1 3019 16
	ldr	r2, [sp, #24]
	ldr	r3, [sp, #4]
	str	r2, [r3]
	.loc 1 3020 9
	ldr	r3, [sp, #4]
	add	r2, sp, #12
	str	r2, [r3, #24]
	.loc 1 3021 15
	ldr	r3, [sp]
	mov	r1, r3
	ldr	r0, [sp, #4]
	bl	follow_path
	mov	r3, r0
	strb	r3, [sp, #31]
	.loc 1 3023 12
	ldrb	r3, [sp, #31]	@ zero_extendqisi2
	cmp	r3, #0
	bne	.L481
	.loc 1 3024 19
	ldr	r3, [sp, #4]
	ldr	r3, [r3, #20]
	.loc 1 3024 16
	cmp	r3, #0
	beq	.L482
	.loc 1 3025 23
	ldr	r3, [sp, #4]
	ldr	r3, [r3, #20]
	.loc 1 3025 28
	adds	r3, r3, #11
	ldrb	r3, [r3]	@ zero_extendqisi2
	.loc 1 3025 39
	and	r3, r3, #16
	.loc 1 3025 20
	cmp	r3, #0
	beq	.L483
	.loc 1 3026 34
	ldr	r2, [sp, #24]
	.loc 1 3026 49
	ldr	r3, [sp, #4]
	ldr	r3, [r3, #20]
	.loc 1 3026 34
	mov	r1, r3
	mov	r0, r2
	bl	ld_clust
	mov	r2, r0
	.loc 1 3026 32
	ldr	r3, [sp, #4]
	str	r2, [r3, #8]
	b	.L482
.L483:
	.loc 1 3028 25
	movs	r3, #5
	strb	r3, [sp, #31]
.L482:
	.loc 1 3030 16
	ldrb	r3, [sp, #31]	@ zero_extendqisi2
	cmp	r3, #0
	bne	.L481
	.loc 1 3031 28
	ldr	r3, [sp, #24]
	ldrh	r2, [r3, #6]
	.loc 1 3031 24
	ldr	r3, [sp, #4]
	strh	r2, [r3, #4]	@ movhi
	.loc 1 3032 23
	movs	r1, #0
	ldr	r0, [sp, #4]
	bl	dir_sdi
	mov	r3, r0
	strb	r3, [sp, #31]
.L481:
	.loc 1 3046 12
	ldrb	r3, [sp, #31]	@ zero_extendqisi2
	cmp	r3, #4
	bne	.L480
	.loc 1 3046 36 discriminator 1
	movs	r3, #5
	strb	r3, [sp, #31]
.L480:
	.loc 1 3048 8
	ldrb	r3, [sp, #31]	@ zero_extendqisi2
	cmp	r3, #0
	beq	.L484
	.loc 1 3048 30 discriminator 1
	ldr	r3, [sp, #4]
	movs	r2, #0
	str	r2, [r3]
.L484:
	.loc 1 3050 5
	ldrb	r3, [sp, #31]	@ zero_extendqisi2
.L485:
	.loc 1 3051 1 discriminator 1
	mov	r0, r3
	add	sp, sp, #36
.LCFI109:
	@ sp needed
	ldr	pc, [sp], #4
.LFE39:
	.size	f_opendir, .-f_opendir
	.section	.text.f_closedir,"ax",%progbits
	.align	1
	.global	f_closedir
	.syntax unified
	.thumb
	.thumb_func
	.fpu fpv5-d16
	.type	f_closedir, %function
f_closedir:
.LFB40:
	.loc 1 3060 1
	@ args = 0, pretend = 0, frame = 16
	@ frame_needed = 0, uses_anonymous_args = 0
	push	{lr}
.LCFI110:
	sub	sp, sp, #20
.LCFI111:
	str	r0, [sp, #4]
	.loc 1 3063 11
	ldr	r0, [sp, #4]
	bl	validate
	mov	r3, r0
	strb	r3, [sp, #15]
	.loc 1 3064 8
	ldrb	r3, [sp, #15]	@ zero_extendqisi2
	cmp	r3, #0
	bne	.L487
	.loc 1 3073 20
	ldr	r3, [sp, #4]
	movs	r2, #0
	str	r2, [r3]
.L487:
	.loc 1 3078 12
	ldrb	r3, [sp, #15]	@ zero_extendqisi2
	.loc 1 3079 1
	mov	r0, r3
	add	sp, sp, #20
.LCFI112:
	@ sp needed
	ldr	pc, [sp], #4
.LFE40:
	.size	f_closedir, .-f_closedir
	.section	.text.f_readdir,"ax",%progbits
	.align	1
	.global	f_readdir
	.syntax unified
	.thumb
	.thumb_func
	.fpu fpv5-d16
	.type	f_readdir, %function
f_readdir:
.LFB41:
	.loc 1 3089 1
	@ args = 0, pretend = 0, frame = 24
	@ frame_needed = 0, uses_anonymous_args = 0
	push	{lr}
.LCFI113:
	sub	sp, sp, #28
.LCFI114:
	str	r0, [sp, #4]
	str	r1, [sp]
	.loc 1 3093 11
	ldr	r0, [sp, #4]
	bl	validate
	mov	r3, r0
	strb	r3, [sp, #23]
	.loc 1 3094 8
	ldrb	r3, [sp, #23]	@ zero_extendqisi2
	cmp	r3, #0
	bne	.L490
	.loc 1 3095 12
	ldr	r3, [sp]
	cmp	r3, #0
	bne	.L491
	.loc 1 3096 19
	movs	r1, #0
	ldr	r0, [sp, #4]
	bl	dir_sdi
	mov	r3, r0
	strb	r3, [sp, #23]
	b	.L490
.L491:
	.loc 1 3098 13
	ldr	r3, [sp, #4]
	add	r2, sp, #8
	str	r2, [r3, #24]
	.loc 1 3099 19
	movs	r1, #0
	ldr	r0, [sp, #4]
	bl	dir_read
	mov	r3, r0
	strb	r3, [sp, #23]
	.loc 1 3100 16
	ldrb	r3, [sp, #23]	@ zero_extendqisi2
	cmp	r3, #4
	bne	.L492
	.loc 1 3101 26
	ldr	r3, [sp, #4]
	movs	r2, #0
	str	r2, [r3, #16]
	.loc 1 3102 21
	movs	r3, #0
	strb	r3, [sp, #23]
.L492:
	.loc 1 3104 16
	ldrb	r3, [sp, #23]	@ zero_extendqisi2
	cmp	r3, #0
	bne	.L490
	.loc 1 3105 17
	ldr	r1, [sp]
	ldr	r0, [sp, #4]
	bl	get_fileinfo
	.loc 1 3106 23
	movs	r1, #0
	ldr	r0, [sp, #4]
	bl	dir_next
	mov	r3, r0
	strb	r3, [sp, #23]
	.loc 1 3107 20
	ldrb	r3, [sp, #23]	@ zero_extendqisi2
	cmp	r3, #4
	bne	.L490
	.loc 1 3108 30
	ldr	r3, [sp, #4]
	movs	r2, #0
	str	r2, [r3, #16]
	.loc 1 3109 25
	movs	r3, #0
	strb	r3, [sp, #23]
.L490:
	.loc 1 3116 5
	ldrb	r3, [sp, #23]	@ zero_extendqisi2
	.loc 1 3117 1
	mov	r0, r3
	add	sp, sp, #28
.LCFI115:
	@ sp needed
	ldr	pc, [sp], #4
.LFE41:
	.size	f_readdir, .-f_readdir
	.section	.text.f_stat,"ax",%progbits
	.align	1
	.global	f_stat
	.syntax unified
	.thumb
	.thumb_func
	.fpu fpv5-d16
	.type	f_stat, %function
f_stat:
.LFB42:
	.loc 1 3174 1
	@ args = 0, pretend = 0, frame = 56
	@ frame_needed = 0, uses_anonymous_args = 0
	push	{lr}
.LCFI116:
	sub	sp, sp, #60
.LCFI117:
	str	r0, [sp, #4]
	str	r1, [sp]
	.loc 1 3180 11
	add	r1, sp, #4
	add	r3, sp, #24
	movs	r2, #0
	mov	r0, r3
	bl	find_volume
	mov	r3, r0
	strb	r3, [sp, #55]
	.loc 1 3181 8
	ldrb	r3, [sp, #55]	@ zero_extendqisi2
	cmp	r3, #0
	bne	.L495
	.loc 1 3182 9
	add	r3, sp, #12
	str	r3, [sp, #48]
	.loc 1 3183 15
	ldr	r2, [sp, #4]
	add	r3, sp, #24
	mov	r1, r2
	mov	r0, r3
	bl	follow_path
	mov	r3, r0
	strb	r3, [sp, #55]
	.loc 1 3184 12
	ldrb	r3, [sp, #55]	@ zero_extendqisi2
	cmp	r3, #0
	bne	.L495
	.loc 1 3185 19
	ldr	r3, [sp, #44]
	.loc 1 3185 16
	cmp	r3, #0
	beq	.L496
	.loc 1 3186 20
	ldr	r3, [sp]
	cmp	r3, #0
	beq	.L495
	.loc 1 3186 26 discriminator 1
	add	r3, sp, #24
	ldr	r1, [sp]
	mov	r0, r3
	bl	get_fileinfo
	b	.L495
.L496:
	.loc 1 3188 21
	movs	r3, #6
	strb	r3, [sp, #55]
.L495:
	.loc 1 3194 5
	ldrb	r3, [sp, #55]	@ zero_extendqisi2
	.loc 1 3195 1
	mov	r0, r3
	add	sp, sp, #60
.LCFI118:
	@ sp needed
	ldr	pc, [sp], #4
.LFE42:
	.size	f_stat, .-f_stat
	.section	.text.f_getfree,"ax",%progbits
	.align	1
	.global	f_getfree
	.syntax unified
	.thumb
	.thumb_func
	.fpu fpv5-d16
	.type	f_getfree, %function
f_getfree:
.LFB43:
	.loc 1 3207 1
	@ args = 0, pretend = 0, frame = 56
	@ frame_needed = 0, uses_anonymous_args = 0
	push	{lr}
.LCFI119:
	sub	sp, sp, #60
.LCFI120:
	str	r0, [sp, #12]
	str	r1, [sp, #8]
	str	r2, [sp, #4]
	.loc 1 3215 11
	add	r3, sp, #12
	movs	r2, #0
	mov	r1, r3
	ldr	r0, [sp, #4]
	bl	find_volume
	mov	r3, r0
	strb	r3, [sp, #55]
	.loc 1 3216 8
	ldr	r3, [sp, #4]
	ldr	r3, [r3]
	str	r3, [sp, #28]
	.loc 1 3217 8
	ldrb	r3, [sp, #55]	@ zero_extendqisi2
	cmp	r3, #0
	bne	.L499
	.loc 1 3219 15
	ldr	r3, [sp, #28]
	ldr	r2, [r3, #16]
	.loc 1 3219 33
	ldr	r3, [sp, #28]
	ldr	r3, [r3, #24]
	.loc 1 3219 44
	subs	r3, r3, #2
	.loc 1 3219 12
	cmp	r2, r3
	bhi	.L500
	.loc 1 3220 24
	ldr	r3, [sp, #28]
	ldr	r2, [r3, #16]
	.loc 1 3220 20
	ldr	r3, [sp, #8]
	str	r2, [r3]
	b	.L499
.L500:
	.loc 1 3223 17
	ldr	r3, [sp, #28]
	ldrb	r3, [r3]
	strb	r3, [sp, #27]
	.loc 1 3224 19
	movs	r3, #0
	str	r3, [sp, #48]
	.loc 1 3225 16
	ldrb	r3, [sp, #27]	@ zero_extendqisi2
	cmp	r3, #1
	bne	.L501
	.loc 1 3226 22
	movs	r3, #2
	str	r3, [sp, #44]
.L506:
	.loc 1 3228 28
	ldr	r1, [sp, #44]
	ldr	r0, [sp, #28]
	bl	get_fat
	str	r0, [sp, #20]
	.loc 1 3229 24
	ldr	r3, [sp, #20]
	cmp	r3, #-1
	bne	.L502
	.loc 1 3229 51 discriminator 1
	movs	r3, #1
	strb	r3, [sp, #55]
	.loc 1 3229 21 discriminator 1
	b	.L507
.L502:
	.loc 1 3230 24
	ldr	r3, [sp, #20]
	cmp	r3, #1
	bne	.L504
	.loc 1 3230 42 discriminator 1
	movs	r3, #2
	strb	r3, [sp, #55]
	.loc 1 3230 21 discriminator 1
	b	.L507
.L504:
	.loc 1 3231 24
	ldr	r3, [sp, #20]
	cmp	r3, #0
	bne	.L505
	.loc 1 3231 41 discriminator 1
	ldr	r3, [sp, #48]
	adds	r3, r3, #1
	str	r3, [sp, #48]
.L505:
	.loc 1 3232 17
	ldr	r3, [sp, #44]
	adds	r3, r3, #1
	str	r3, [sp, #44]
	.loc 1 3232 37
	ldr	r3, [sp, #28]
	ldr	r3, [r3, #24]
	.loc 1 3232 17
	ldr	r2, [sp, #44]
	cmp	r2, r3
	bcc	.L506
	b	.L507
.L501:
	.loc 1 3234 22
	ldr	r3, [sp, #28]
	ldr	r3, [r3, #24]
	str	r3, [sp, #44]
	.loc 1 3234 43
	ldr	r3, [sp, #28]
	ldr	r3, [r3, #36]
	str	r3, [sp, #40]
	.loc 1 3235 19
	movs	r3, #0
	str	r3, [sp, #36]
	.loc 1 3235 26
	movs	r3, #0
	str	r3, [sp, #32]
.L514:
	.loc 1 3237 24
	ldr	r3, [sp, #36]
	cmp	r3, #0
	bne	.L508
	.loc 1 3238 31
	ldr	r3, [sp, #40]
	adds	r2, r3, #1
	str	r2, [sp, #40]
	mov	r1, r3
	ldr	r0, [sp, #28]
	bl	move_window
	mov	r3, r0
	strb	r3, [sp, #55]
	.loc 1 3239 28
	ldrb	r3, [sp, #55]	@ zero_extendqisi2
	cmp	r3, #0
	bne	.L516
	.loc 1 3240 27
	ldr	r3, [sp, #28]
	adds	r3, r3, #52
	str	r3, [sp, #32]
	.loc 1 3241 27
	mov	r3, #512
	str	r3, [sp, #36]
.L508:
	.loc 1 3243 24
	ldrb	r3, [sp, #27]	@ zero_extendqisi2
	cmp	r3, #2
	bne	.L510
	.loc 1 3244 29
	ldr	r3, [sp, #32]
	adds	r3, r3, #1
	ldrb	r3, [r3]	@ zero_extendqisi2
	lsls	r3, r3, #8
	sxth	r2, r3
	ldr	r3, [sp, #32]
	ldrb	r3, [r3]	@ zero_extendqisi2
	sxth	r3, r3
	orrs	r3, r3, r2
	sxth	r3, r3
	.loc 1 3244 28
	cmp	r3, #0
	bne	.L511
	.loc 1 3244 51 discriminator 1
	ldr	r3, [sp, #48]
	adds	r3, r3, #1
	str	r3, [sp, #48]
.L511:
	.loc 1 3245 27
	ldr	r3, [sp, #32]
	adds	r3, r3, #2
	str	r3, [sp, #32]
	.loc 1 3245 35
	ldr	r3, [sp, #36]
	subs	r3, r3, #2
	str	r3, [sp, #36]
	b	.L512
.L510:
	.loc 1 3247 30
	ldr	r3, [sp, #32]
	adds	r3, r3, #3
	ldrb	r3, [r3]	@ zero_extendqisi2
	lsls	r2, r3, #24
	ldr	r3, [sp, #32]
	adds	r3, r3, #2
	ldrb	r3, [r3]	@ zero_extendqisi2
	lsls	r3, r3, #16
	orrs	r3, r3, r2
	ldr	r2, [sp, #32]
	adds	r2, r2, #1
	ldrb	r2, [r2]	@ zero_extendqisi2
	lsls	r2, r2, #8
	orrs	r3, r3, r2
	ldr	r2, [sp, #32]
	ldrb	r2, [r2]	@ zero_extendqisi2
	orrs	r3, r3, r2
	.loc 1 3247 42
	bic	r3, r3, #-268435456
	.loc 1 3247 28
	cmp	r3, #0
	bne	.L513
	.loc 1 3247 67 discriminator 1
	ldr	r3, [sp, #48]
	adds	r3, r3, #1
	str	r3, [sp, #48]
.L513:
	.loc 1 3248 27
	ldr	r3, [sp, #32]
	adds	r3, r3, #4
	str	r3, [sp, #32]
	.loc 1 3248 35
	ldr	r3, [sp, #36]
	subs	r3, r3, #4
	str	r3, [sp, #36]
.L512:
	.loc 1 3250 17
	ldr	r3, [sp, #44]
	subs	r3, r3, #1
	str	r3, [sp, #44]
	ldr	r3, [sp, #44]
	cmp	r3, #0
	bne	.L514
	b	.L507
.L516:
	.loc 1 3239 25
	nop
.L507:
	.loc 1 3252 28
	ldr	r3, [sp, #28]
	ldr	r2, [sp, #48]
	str	r2, [r3, #16]
	.loc 1 3253 26
	ldr	r3, [sp, #28]
	ldrb	r3, [r3, #5]	@ zero_extendqisi2
	orr	r3, r3, #1
	uxtb	r2, r3
	ldr	r3, [sp, #28]
	strb	r2, [r3, #5]
	.loc 1 3254 20
	ldr	r3, [sp, #8]
	ldr	r2, [sp, #48]
	str	r2, [r3]
.L499:
	.loc 1 3257 5
	ldrb	r3, [sp, #55]	@ zero_extendqisi2
	.loc 1 3258 1
	mov	r0, r3
	add	sp, sp, #60
.LCFI121:
	@ sp needed
	ldr	pc, [sp], #4
.LFE43:
	.size	f_getfree, .-f_getfree
	.section	.text.f_truncate,"ax",%progbits
	.align	1
	.global	f_truncate
	.syntax unified
	.thumb
	.thumb_func
	.fpu fpv5-d16
	.type	f_truncate, %function
f_truncate:
.LFB44:
	.loc 1 3267 1
	@ args = 0, pretend = 0, frame = 16
	@ frame_needed = 0, uses_anonymous_args = 0
	push	{lr}
.LCFI122:
	sub	sp, sp, #20
.LCFI123:
	str	r0, [sp, #4]
	.loc 1 3271 11
	ldr	r0, [sp, #4]
	bl	validate
	mov	r3, r0
	strb	r3, [sp, #15]
	.loc 1 3272 8
	ldrb	r3, [sp, #15]	@ zero_extendqisi2
	cmp	r3, #0
	bne	.L518
	.loc 1 3273 15
	ldr	r3, [sp, #4]
	ldrb	r3, [r3, #7]	@ zero_extendqisi2
	.loc 1 3273 12
	cmp	r3, #0
	beq	.L519
	.loc 1 3274 17
	ldr	r3, [sp, #4]
	ldrb	r3, [r3, #7]
	strb	r3, [sp, #15]
	b	.L518
.L519:
	.loc 1 3276 21
	ldr	r3, [sp, #4]
	ldrb	r3, [r3, #6]	@ zero_extendqisi2
	.loc 1 3276 28
	and	r3, r3, #2
	.loc 1 3276 16
	cmp	r3, #0
	bne	.L518
	.loc 1 3277 21
	movs	r3, #7
	strb	r3, [sp, #15]
.L518:
	.loc 1 3280 8
	ldrb	r3, [sp, #15]	@ zero_extendqisi2
	cmp	r3, #0
	bne	.L520
	.loc 1 3281 15
	ldr	r3, [sp, #4]
	ldr	r2, [r3, #12]
	.loc 1 3281 27
	ldr	r3, [sp, #4]
	ldr	r3, [r3, #8]
	.loc 1 3281 12
	cmp	r2, r3
	bls	.L521
	.loc 1 3282 27
	ldr	r3, [sp, #4]
	ldr	r2, [r3, #8]
	.loc 1 3282 23
	ldr	r3, [sp, #4]
	str	r2, [r3, #12]
	.loc 1 3283 22
	ldr	r3, [sp, #4]
	ldrb	r3, [r3, #6]	@ zero_extendqisi2
	orr	r3, r3, #32
	uxtb	r2, r3
	ldr	r3, [sp, #4]
	strb	r2, [r3, #6]
	.loc 1 3284 19
	ldr	r3, [sp, #4]
	ldr	r3, [r3, #8]
	.loc 1 3284 16
	cmp	r3, #0
	bne	.L522
	.loc 1 3285 23
	ldr	r3, [sp, #4]
	ldr	r2, [r3]
	ldr	r3, [sp, #4]
	ldr	r3, [r3, #16]
	mov	r1, r3
	mov	r0, r2
	bl	remove_chain
	mov	r3, r0
	strb	r3, [sp, #15]
	.loc 1 3286 28
	ldr	r3, [sp, #4]
	movs	r2, #0
	str	r2, [r3, #16]
	b	.L523
.L522:
	.loc 1 3288 23
	ldr	r3, [sp, #4]
	ldr	r2, [r3]
	ldr	r3, [sp, #4]
	ldr	r3, [r3, #20]
	mov	r1, r3
	mov	r0, r2
	bl	get_fat
	str	r0, [sp, #8]
	.loc 1 3289 21
	movs	r3, #0
	strb	r3, [sp, #15]
	.loc 1 3290 20
	ldr	r3, [sp, #8]
	cmp	r3, #-1
	bne	.L524
	.loc 1 3290 44 discriminator 1
	movs	r3, #1
	strb	r3, [sp, #15]
.L524:
	.loc 1 3291 20
	ldr	r3, [sp, #8]
	cmp	r3, #1
	bne	.L525
	.loc 1 3291 35 discriminator 1
	movs	r3, #2
	strb	r3, [sp, #15]
.L525:
	.loc 1 3292 20
	ldrb	r3, [sp, #15]	@ zero_extendqisi2
	cmp	r3, #0
	bne	.L523
	.loc 1 3292 45 discriminator 1
	ldr	r3, [sp, #4]
	ldr	r3, [r3]
	.loc 1 3292 49 discriminator 1
	ldr	r3, [r3, #24]
	.loc 1 3292 34 discriminator 1
	ldr	r2, [sp, #8]
	cmp	r2, r3
	bcs	.L523
	.loc 1 3293 27
	ldr	r3, [sp, #4]
	ldr	r0, [r3]
	ldr	r3, [sp, #4]
	ldr	r3, [r3, #20]
	mvn	r2, #-268435456
	mov	r1, r3
	bl	put_fat
	mov	r3, r0
	strb	r3, [sp, #15]
	.loc 1 3294 24
	ldrb	r3, [sp, #15]	@ zero_extendqisi2
	cmp	r3, #0
	bne	.L523
	.loc 1 3294 45 discriminator 1
	ldr	r3, [sp, #4]
	ldr	r3, [r3]
	ldr	r1, [sp, #8]
	mov	r0, r3
	bl	remove_chain
	mov	r3, r0
	strb	r3, [sp, #15]
.L523:
	.loc 1 3298 16
	ldrb	r3, [sp, #15]	@ zero_extendqisi2
	cmp	r3, #0
	bne	.L521
	.loc 1 3298 36 discriminator 1
	ldr	r3, [sp, #4]
	ldrb	r3, [r3, #6]	@ zero_extendqisi2
	.loc 1 3298 43 discriminator 1
	and	r3, r3, #64
	.loc 1 3298 30 discriminator 1
	cmp	r3, #0
	beq	.L521
	.loc 1 3299 34
	ldr	r3, [sp, #4]
	ldr	r3, [r3]
	.loc 1 3299 21
	ldrb	r0, [r3, #1]	@ zero_extendqisi2
	.loc 1 3299 47
	ldr	r3, [sp, #4]
	add	r1, r3, #40
	.loc 1 3299 56
	ldr	r3, [sp, #4]
	ldr	r2, [r3, #24]
	.loc 1 3299 21
	movs	r3, #1
	bl	disk_write
	mov	r3, r0
	.loc 1 3299 20
	cmp	r3, #0
	beq	.L526
	.loc 1 3300 25
	movs	r3, #1
	strb	r3, [sp, #15]
	b	.L521
.L526:
	.loc 1 3302 30
	ldr	r3, [sp, #4]
	ldrb	r3, [r3, #6]	@ zero_extendqisi2
	bic	r3, r3, #64
	uxtb	r2, r3
	ldr	r3, [sp, #4]
	strb	r2, [r3, #6]
.L521:
	.loc 1 3306 12
	ldrb	r3, [sp, #15]	@ zero_extendqisi2
	cmp	r3, #0
	beq	.L520
	.loc 1 3306 35 discriminator 1
	ldr	r3, [sp, #4]
	ldrb	r2, [sp, #15]
	strb	r2, [r3, #7]
.L520:
	.loc 1 3309 5
	ldrb	r3, [sp, #15]	@ zero_extendqisi2
	.loc 1 3310 1
	mov	r0, r3
	add	sp, sp, #20
.LCFI124:
	@ sp needed
	ldr	pc, [sp], #4
.LFE44:
	.size	f_truncate, .-f_truncate
	.section	.text.f_unlink,"ax",%progbits
	.align	1
	.global	f_unlink
	.syntax unified
	.thumb
	.thumb_func
	.fpu fpv5-d16
	.type	f_unlink, %function
f_unlink:
.LFB45:
	.loc 1 3319 1
	@ args = 0, pretend = 0, frame = 88
	@ frame_needed = 0, uses_anonymous_args = 0
	push	{lr}
.LCFI125:
	sub	sp, sp, #92
.LCFI126:
	str	r0, [sp, #4]
	.loc 1 3323 11
	movs	r3, #0
	str	r3, [sp, #80]
	.loc 1 3327 11
	add	r1, sp, #4
	add	r3, sp, #48
	movs	r2, #1
	mov	r0, r3
	bl	find_volume
	mov	r3, r0
	strb	r3, [sp, #87]
	.loc 1 3328 8
	ldrb	r3, [sp, #87]	@ zero_extendqisi2
	cmp	r3, #0
	bne	.L529
	.loc 1 3329 9
	add	r3, sp, #8
	str	r3, [sp, #72]
	.loc 1 3330 15
	ldr	r2, [sp, #4]
	add	r3, sp, #48
	mov	r1, r2
	mov	r0, r3
	bl	follow_path
	mov	r3, r0
	strb	r3, [sp, #87]
	.loc 1 3331 12
	ldrb	r3, [sp, #87]	@ zero_extendqisi2
	cmp	r3, #0
	bne	.L530
	.loc 1 3331 45 discriminator 1
	ldr	r3, [sp, #72]
	.loc 1 3331 48 discriminator 1
	adds	r3, r3, #11
	ldrb	r3, [r3]	@ zero_extendqisi2
	.loc 1 3331 57 discriminator 1
	and	r3, r3, #32
	.loc 1 3331 39 discriminator 1
	cmp	r3, #0
	beq	.L530
	.loc 1 3332 17
	movs	r3, #6
	strb	r3, [sp, #87]
.L530:
	.loc 1 3336 12
	ldrb	r3, [sp, #87]	@ zero_extendqisi2
	cmp	r3, #0
	bne	.L529
	.loc 1 3337 17
	ldr	r3, [sp, #68]
	str	r3, [sp, #76]
	.loc 1 3338 16
	ldr	r3, [sp, #76]
	cmp	r3, #0
	bne	.L531
	.loc 1 3339 21
	movs	r3, #6
	strb	r3, [sp, #87]
	b	.L532
.L531:
	.loc 1 3341 24
	ldr	r3, [sp, #76]
	adds	r3, r3, #11
	ldrb	r3, [r3]	@ zero_extendqisi2
	.loc 1 3341 35
	and	r3, r3, #1
	.loc 1 3341 20
	cmp	r3, #0
	beq	.L532
	.loc 1 3342 25
	movs	r3, #7
	strb	r3, [sp, #87]
.L532:
	.loc 1 3344 16
	ldrb	r3, [sp, #87]	@ zero_extendqisi2
	cmp	r3, #0
	bne	.L533
	.loc 1 3345 25
	ldr	r3, [sp, #48]
	ldr	r1, [sp, #76]
	mov	r0, r3
	bl	ld_clust
	str	r0, [sp, #80]
	.loc 1 3346 20
	ldr	r3, [sp, #80]
	cmp	r3, #0
	beq	.L533
	.loc 1 3346 34 discriminator 1
	ldr	r3, [sp, #76]
	adds	r3, r3, #11
	ldrb	r3, [r3]	@ zero_extendqisi2
	.loc 1 3346 45 discriminator 1
	and	r3, r3, #16
	.loc 1 3346 27 discriminator 1
	cmp	r3, #0
	beq	.L533
	.loc 1 3348 36
	ldr	r3, [sp, #48]
	.loc 1 3348 39
	ldr	r3, [r3, #20]
	.loc 1 3348 24
	ldr	r2, [sp, #80]
	cmp	r2, r3
	bne	.L534
	.loc 1 3349 29
	movs	r3, #7
	strb	r3, [sp, #87]
	b	.L533
.L534:
	.loc 1 3353 25
	add	r1, sp, #48
	add	r3, sp, #20
	movs	r2, #28
	mov	r0, r3
	bl	mem_cpy
	.loc 1 3354 36
	ldr	r3, [sp, #80]
	str	r3, [sp, #28]
	.loc 1 3355 31
	add	r3, sp, #20
	movs	r1, #2
	mov	r0, r3
	bl	dir_sdi
	mov	r3, r0
	strb	r3, [sp, #87]
	.loc 1 3356 28
	ldrb	r3, [sp, #87]	@ zero_extendqisi2
	cmp	r3, #0
	bne	.L533
	.loc 1 3357 35
	add	r3, sp, #20
	movs	r1, #0
	mov	r0, r3
	bl	dir_read
	mov	r3, r0
	strb	r3, [sp, #87]
	.loc 1 3358 32
	ldrb	r3, [sp, #87]	@ zero_extendqisi2
	cmp	r3, #0
	bne	.L535
	.loc 1 3358 51 discriminator 1
	movs	r3, #7
	strb	r3, [sp, #87]
.L535:
	.loc 1 3359 32
	ldrb	r3, [sp, #87]	@ zero_extendqisi2
	cmp	r3, #4
	bne	.L533
	.loc 1 3359 56 discriminator 1
	movs	r3, #0
	strb	r3, [sp, #87]
.L533:
	.loc 1 3364 16
	ldrb	r3, [sp, #87]	@ zero_extendqisi2
	cmp	r3, #0
	bne	.L529
	.loc 1 3365 23
	add	r3, sp, #48
	mov	r0, r3
	bl	dir_remove
	mov	r3, r0
	strb	r3, [sp, #87]
	.loc 1 3366 20
	ldrb	r3, [sp, #87]	@ zero_extendqisi2
	cmp	r3, #0
	bne	.L536
	.loc 1 3366 34 discriminator 1
	ldr	r3, [sp, #80]
	cmp	r3, #0
	beq	.L536
	.loc 1 3367 27
	ldr	r3, [sp, #48]
	ldr	r1, [sp, #80]
	mov	r0, r3
	bl	remove_chain
	mov	r3, r0
	strb	r3, [sp, #87]
.L536:
	.loc 1 3368 20
	ldrb	r3, [sp, #87]	@ zero_extendqisi2
	cmp	r3, #0
	bne	.L529
	.loc 1 3368 41 discriminator 1
	ldr	r3, [sp, #48]
	mov	r0, r3
	bl	sync_fs
	mov	r3, r0
	strb	r3, [sp, #87]
.L529:
	.loc 1 3374 5
	ldrb	r3, [sp, #87]	@ zero_extendqisi2
	.loc 1 3375 1
	mov	r0, r3
	add	sp, sp, #92
.LCFI127:
	@ sp needed
	ldr	pc, [sp], #4
.LFE45:
	.size	f_unlink, .-f_unlink
	.section	.text.f_mkdir,"ax",%progbits
	.align	1
	.global	f_mkdir
	.syntax unified
	.thumb
	.thumb_func
	.fpu fpv5-d16
	.type	f_mkdir, %function
f_mkdir:
.LFB46:
	.loc 1 3384 1
	@ args = 0, pretend = 0, frame = 72
	@ frame_needed = 0, uses_anonymous_args = 0
	push	{lr}
.LCFI128:
	sub	sp, sp, #76
.LCFI129:
	str	r0, [sp, #4]
	.loc 1 3388 31
	bl	get_fattime
	str	r0, [sp, #56]
	.loc 1 3392 11
	add	r1, sp, #4
	add	r3, sp, #20
	movs	r2, #1
	mov	r0, r3
	bl	find_volume
	mov	r3, r0
	strb	r3, [sp, #71]
	.loc 1 3393 8
	ldrb	r3, [sp, #71]	@ zero_extendqisi2
	cmp	r3, #0
	bne	.L539
	.loc 1 3394 9
	add	r3, sp, #8
	str	r3, [sp, #44]
	.loc 1 3395 15
	ldr	r2, [sp, #4]
	add	r3, sp, #20
	mov	r1, r2
	mov	r0, r3
	bl	follow_path
	mov	r3, r0
	strb	r3, [sp, #71]
	.loc 1 3396 12
	ldrb	r3, [sp, #71]	@ zero_extendqisi2
	cmp	r3, #0
	bne	.L540
	.loc 1 3396 31 discriminator 1
	movs	r3, #8
	strb	r3, [sp, #71]
.L540:
	.loc 1 3397 12
	ldrb	r3, [sp, #71]	@ zero_extendqisi2
	cmp	r3, #4
	bne	.L541
	.loc 1 3397 50 discriminator 1
	ldr	r3, [sp, #44]
	.loc 1 3397 53 discriminator 1
	adds	r3, r3, #11
	ldrb	r3, [r3]	@ zero_extendqisi2
	.loc 1 3397 62 discriminator 1
	and	r3, r3, #32
	.loc 1 3397 44 discriminator 1
	cmp	r3, #0
	beq	.L541
	.loc 1 3398 17
	movs	r3, #6
	strb	r3, [sp, #71]
.L541:
	.loc 1 3399 12
	ldrb	r3, [sp, #71]	@ zero_extendqisi2
	cmp	r3, #4
	bne	.L539
	.loc 1 3400 19
	ldr	r3, [sp, #20]
	movs	r1, #0
	mov	r0, r3
	bl	create_chain
	str	r0, [sp, #52]
	.loc 1 3401 17
	movs	r3, #0
	strb	r3, [sp, #71]
	.loc 1 3402 16
	ldr	r3, [sp, #52]
	cmp	r3, #0
	bne	.L542
	.loc 1 3402 31 discriminator 1
	movs	r3, #7
	strb	r3, [sp, #71]
.L542:
	.loc 1 3403 16
	ldr	r3, [sp, #52]
	cmp	r3, #1
	bne	.L543
	.loc 1 3403 31 discriminator 1
	movs	r3, #2
	strb	r3, [sp, #71]
.L543:
	.loc 1 3404 16
	ldr	r3, [sp, #52]
	cmp	r3, #-1
	bne	.L544
	.loc 1 3404 40 discriminator 1
	movs	r3, #1
	strb	r3, [sp, #71]
.L544:
	.loc 1 3405 16
	ldrb	r3, [sp, #71]	@ zero_extendqisi2
	cmp	r3, #0
	bne	.L545
	.loc 1 3406 23
	ldr	r3, [sp, #20]
	mov	r0, r3
	bl	sync_window
	mov	r3, r0
	strb	r3, [sp, #71]
.L545:
	.loc 1 3407 16
	ldrb	r3, [sp, #71]	@ zero_extendqisi2
	cmp	r3, #0
	bne	.L546
	.loc 1 3408 23
	ldr	r3, [sp, #20]
	ldr	r1, [sp, #52]
	mov	r0, r3
	bl	clust2sect
	str	r0, [sp, #64]
	.loc 1 3409 25
	ldr	r3, [sp, #20]
	.loc 1 3409 21
	adds	r3, r3, #52
	str	r3, [sp, #48]
	.loc 1 3410 17
	mov	r2, #512
	movs	r1, #0
	ldr	r0, [sp, #48]
	bl	mem_set
	.loc 1 3411 17
	movs	r2, #11
	movs	r1, #32
	ldr	r0, [sp, #48]
	bl	mem_set
	.loc 1 3412 31
	ldr	r3, [sp, #48]
	movs	r2, #46
	strb	r2, [r3]
	.loc 1 3413 20
	ldr	r3, [sp, #48]
	adds	r3, r3, #11
	.loc 1 3413 31
	movs	r2, #16
	strb	r2, [r3]
	.loc 1 3414 17
	ldr	r3, [sp, #48]
	adds	r3, r3, #22
	ldr	r2, [sp, #56]
	uxtb	r2, r2
	strb	r2, [r3]
	ldr	r3, [sp, #56]
	uxth	r3, r3
	lsrs	r3, r3, #8
	uxth	r2, r3
	ldr	r3, [sp, #48]
	adds	r3, r3, #23
	uxtb	r2, r2
	strb	r2, [r3]
	ldr	r3, [sp, #56]
	lsrs	r2, r3, #16
	ldr	r3, [sp, #48]
	adds	r3, r3, #24
	uxtb	r2, r2
	strb	r2, [r3]
	ldr	r3, [sp, #56]
	lsrs	r2, r3, #24
	ldr	r3, [sp, #48]
	adds	r3, r3, #25
	uxtb	r2, r2
	strb	r2, [r3]
	.loc 1 3415 17
	ldr	r1, [sp, #52]
	ldr	r0, [sp, #48]
	bl	st_clust
	.loc 1 3416 29
	ldr	r3, [sp, #48]
	adds	r3, r3, #32
	.loc 1 3416 17
	movs	r2, #32
	ldr	r1, [sp, #48]
	mov	r0, r3
	bl	mem_cpy
	.loc 1 3417 20
	ldr	r3, [sp, #48]
	adds	r3, r3, #33
	.loc 1 3417 34
	movs	r2, #46
	strb	r2, [r3]
	.loc 1 3417 45
	ldr	r3, [sp, #28]
	str	r3, [sp, #60]
	.loc 1 3418 23
	ldr	r3, [sp, #20]
	.loc 1 3418 26
	ldrb	r3, [r3]	@ zero_extendqisi2
	.loc 1 3418 20
	cmp	r3, #3
	bne	.L547
	.loc 1 3418 60 discriminator 1
	ldr	r3, [sp, #20]
	.loc 1 3418 63 discriminator 1
	ldr	r3, [r3, #40]
	.loc 1 3418 48 discriminator 1
	ldr	r2, [sp, #60]
	cmp	r2, r3
	bne	.L547
	.loc 1 3419 25
	movs	r3, #0
	str	r3, [sp, #60]
.L547:
	.loc 1 3420 17
	ldr	r3, [sp, #48]
	adds	r3, r3, #32
	ldr	r1, [sp, #60]
	mov	r0, r3
	bl	st_clust
	.loc 1 3421 28
	ldr	r3, [sp, #20]
	.loc 1 3421 24
	ldrb	r3, [r3, #2]
	strb	r3, [sp, #70]
	.loc 1 3421 17
	b	.L548
.L550:
	.loc 1 3422 41
	ldr	r3, [sp, #64]
	adds	r2, r3, #1
	str	r2, [sp, #64]
	.loc 1 3422 23
	ldr	r2, [sp, #20]
	.loc 1 3422 36
	str	r3, [r2, #48]
	.loc 1 3423 23
	ldr	r3, [sp, #20]
	.loc 1 3423 34
	movs	r2, #1
	strb	r2, [r3, #4]
	.loc 1 3424 27
	ldr	r3, [sp, #20]
	mov	r0, r3
	bl	sync_window
	mov	r3, r0
	strb	r3, [sp, #71]
	.loc 1 3425 24
	ldrb	r3, [sp, #71]	@ zero_extendqisi2
	cmp	r3, #0
	bne	.L554
	.loc 1 3426 21 discriminator 2
	mov	r2, #512
	movs	r1, #0
	ldr	r0, [sp, #48]
	bl	mem_set
	.loc 1 3421 44 discriminator 2
	ldrb	r3, [sp, #70]	@ zero_extendqisi2
	subs	r3, r3, #1
	strb	r3, [sp, #70]
.L548:
	.loc 1 3421 17 discriminator 1
	ldrb	r3, [sp, #70]	@ zero_extendqisi2
	cmp	r3, #0
	bne	.L550
	b	.L546
.L554:
	.loc 1 3425 21
	nop
.L546:
	.loc 1 3429 16
	ldrb	r3, [sp, #71]	@ zero_extendqisi2
	cmp	r3, #0
	bne	.L551
	.loc 1 3429 37 discriminator 1
	add	r3, sp, #20
	mov	r0, r3
	bl	dir_register
	mov	r3, r0
	strb	r3, [sp, #71]
.L551:
	.loc 1 3430 16
	ldrb	r3, [sp, #71]	@ zero_extendqisi2
	cmp	r3, #0
	beq	.L552
	.loc 1 3431 17
	ldr	r3, [sp, #20]
	ldr	r1, [sp, #52]
	mov	r0, r3
	bl	remove_chain
	b	.L539
.L552:
	.loc 1 3433 21
	ldr	r3, [sp, #40]
	str	r3, [sp, #48]
	.loc 1 3434 20
	ldr	r3, [sp, #48]
	adds	r3, r3, #11
	.loc 1 3434 31
	movs	r2, #16
	strb	r2, [r3]
	.loc 1 3435 17
	ldr	r3, [sp, #48]
	adds	r3, r3, #22
	ldr	r2, [sp, #56]
	uxtb	r2, r2
	strb	r2, [r3]
	ldr	r3, [sp, #56]
	uxth	r3, r3
	lsrs	r3, r3, #8
	uxth	r2, r3
	ldr	r3, [sp, #48]
	adds	r3, r3, #23
	uxtb	r2, r2
	strb	r2, [r3]
	ldr	r3, [sp, #56]
	lsrs	r2, r3, #16
	ldr	r3, [sp, #48]
	adds	r3, r3, #24
	uxtb	r2, r2
	strb	r2, [r3]
	ldr	r3, [sp, #56]
	lsrs	r2, r3, #24
	ldr	r3, [sp, #48]
	adds	r3, r3, #25
	uxtb	r2, r2
	strb	r2, [r3]
	.loc 1 3436 17
	ldr	r1, [sp, #52]
	ldr	r0, [sp, #48]
	bl	st_clust
	.loc 1 3437 19
	ldr	r3, [sp, #20]
	.loc 1 3437 30
	movs	r2, #1
	strb	r2, [r3, #4]
	.loc 1 3438 23
	ldr	r3, [sp, #20]
	mov	r0, r3
	bl	sync_fs
	mov	r3, r0
	strb	r3, [sp, #71]
.L539:
	.loc 1 3444 5
	ldrb	r3, [sp, #71]	@ zero_extendqisi2
	.loc 1 3445 1
	mov	r0, r3
	add	sp, sp, #76
.LCFI130:
	@ sp needed
	ldr	pc, [sp], #4
.LFE46:
	.size	f_mkdir, .-f_mkdir
	.section	.text.f_chmod,"ax",%progbits
	.align	1
	.global	f_chmod
	.syntax unified
	.thumb
	.thumb_func
	.fpu fpv5-d16
	.type	f_chmod, %function
f_chmod:
.LFB47:
	.loc 1 3456 1
	@ args = 0, pretend = 0, frame = 56
	@ frame_needed = 0, uses_anonymous_args = 0
	push	{lr}
.LCFI131:
	sub	sp, sp, #60
.LCFI132:
	str	r0, [sp, #4]
	mov	r3, r1
	strb	r3, [sp, #3]
	mov	r3, r2
	strb	r3, [sp, #2]
	.loc 1 3462 11
	add	r1, sp, #4
	add	r3, sp, #20
	movs	r2, #1
	mov	r0, r3
	bl	find_volume
	mov	r3, r0
	strb	r3, [sp, #55]
	.loc 1 3463 8
	ldrb	r3, [sp, #55]	@ zero_extendqisi2
	cmp	r3, #0
	bne	.L556
	.loc 1 3464 9
	add	r3, sp, #8
	str	r3, [sp, #44]
	.loc 1 3465 15
	ldr	r2, [sp, #4]
	add	r3, sp, #20
	mov	r1, r2
	mov	r0, r3
	bl	follow_path
	mov	r3, r0
	strb	r3, [sp, #55]
	.loc 1 3467 12
	ldrb	r3, [sp, #55]	@ zero_extendqisi2
	cmp	r3, #0
	bne	.L557
	.loc 1 3467 45 discriminator 1
	ldr	r3, [sp, #44]
	.loc 1 3467 48 discriminator 1
	adds	r3, r3, #11
	ldrb	r3, [r3]	@ zero_extendqisi2
	.loc 1 3467 57 discriminator 1
	and	r3, r3, #32
	.loc 1 3467 39 discriminator 1
	cmp	r3, #0
	beq	.L557
	.loc 1 3468 17
	movs	r3, #6
	strb	r3, [sp, #55]
.L557:
	.loc 1 3469 12
	ldrb	r3, [sp, #55]	@ zero_extendqisi2
	cmp	r3, #0
	bne	.L556
	.loc 1 3470 17
	ldr	r3, [sp, #40]
	str	r3, [sp, #48]
	.loc 1 3471 16
	ldr	r3, [sp, #48]
	cmp	r3, #0
	bne	.L558
	.loc 1 3472 21
	movs	r3, #6
	strb	r3, [sp, #55]
	b	.L556
.L558:
	.loc 1 3474 22
	ldrb	r3, [sp, #2]
	and	r3, r3, #39
	strb	r3, [sp, #2]
	.loc 1 3475 31
	ldrb	r2, [sp, #3]
	ldrb	r3, [sp, #2]
	ands	r3, r3, r2
	uxtb	r1, r3
	.loc 1 3475 53
	ldr	r3, [sp, #48]
	adds	r3, r3, #11
	ldrb	r2, [r3]	@ zero_extendqisi2
	.loc 1 3475 66
	ldrb	r3, [sp, #2]
	mvns	r3, r3
	uxtb	r3, r3
	.loc 1 3475 31
	ands	r3, r3, r2
	uxtb	r2, r3
	.loc 1 3475 20
	ldr	r3, [sp, #48]
	adds	r3, r3, #11
	.loc 1 3475 31
	orrs	r2, r2, r1
	uxtb	r2, r2
	strb	r2, [r3]
	.loc 1 3476 19
	ldr	r3, [sp, #20]
	.loc 1 3476 30
	movs	r2, #1
	strb	r2, [r3, #4]
	.loc 1 3477 23
	ldr	r3, [sp, #20]
	mov	r0, r3
	bl	sync_fs
	mov	r3, r0
	strb	r3, [sp, #55]
.L556:
	.loc 1 3482 5
	ldrb	r3, [sp, #55]	@ zero_extendqisi2
	.loc 1 3483 1
	mov	r0, r3
	add	sp, sp, #60
.LCFI133:
	@ sp needed
	ldr	pc, [sp], #4
.LFE47:
	.size	f_chmod, .-f_chmod
	.section	.text.f_rename,"ax",%progbits
	.align	1
	.global	f_rename
	.syntax unified
	.thumb
	.thumb_func
	.fpu fpv5-d16
	.type	f_rename, %function
f_rename:
.LFB48:
	.loc 1 3493 1
	@ args = 0, pretend = 0, frame = 112
	@ frame_needed = 0, uses_anonymous_args = 0
	push	{r4, lr}
.LCFI134:
	sub	sp, sp, #112
.LCFI135:
	str	r0, [sp, #4]
	str	r1, [sp]
	.loc 1 3501 11
	add	r1, sp, #4
	add	r3, sp, #72
	movs	r2, #1
	mov	r0, r3
	bl	find_volume
	mov	r3, r0
	strb	r3, [sp, #111]
	.loc 1 3502 8
	ldrb	r3, [sp, #111]	@ zero_extendqisi2
	cmp	r3, #0
	bne	.L561
	.loc 1 3503 21
	ldr	r3, [sp, #72]
	.loc 1 3503 16
	str	r3, [sp, #44]
	.loc 1 3504 9
	add	r3, sp, #8
	str	r3, [sp, #96]
	.loc 1 3505 15
	ldr	r2, [sp, #4]
	add	r3, sp, #72
	mov	r1, r2
	mov	r0, r3
	bl	follow_path
	mov	r3, r0
	strb	r3, [sp, #111]
	.loc 1 3506 12
	ldrb	r3, [sp, #111]	@ zero_extendqisi2
	cmp	r3, #0
	bne	.L562
	.loc 1 3506 46 discriminator 1
	ldr	r3, [sp, #96]
	.loc 1 3506 49 discriminator 1
	adds	r3, r3, #11
	ldrb	r3, [r3]	@ zero_extendqisi2
	.loc 1 3506 58 discriminator 1
	and	r3, r3, #32
	.loc 1 3506 39 discriminator 1
	cmp	r3, #0
	beq	.L562
	.loc 1 3507 17
	movs	r3, #6
	strb	r3, [sp, #111]
.L562:
	.loc 1 3511 12
	ldrb	r3, [sp, #111]	@ zero_extendqisi2
	cmp	r3, #0
	bne	.L561
	.loc 1 3512 21
	ldr	r3, [sp, #92]
	.loc 1 3512 16
	cmp	r3, #0
	bne	.L563
	.loc 1 3513 21
	movs	r3, #4
	strb	r3, [sp, #111]
	b	.L561
.L563:
	.loc 1 3515 33
	ldr	r3, [sp, #92]
	.loc 1 3515 38
	add	r1, r3, #11
	.loc 1 3515 17
	add	r3, sp, #20
	movs	r2, #21
	mov	r0, r3
	bl	mem_cpy
	.loc 1 3516 17
	add	r1, sp, #72
	add	r3, sp, #44
	movs	r2, #28
	mov	r0, r3
	bl	mem_cpy
	.loc 1 3517 21
	mov	r3, sp
	mov	r0, r3
	bl	get_ldnumber
	mov	r3, r0
	.loc 1 3517 20
	cmp	r3, #0
	blt	.L564
	.loc 1 3518 27
	ldr	r2, [sp]
	add	r3, sp, #44
	mov	r1, r2
	mov	r0, r3
	bl	follow_path
	mov	r3, r0
	strb	r3, [sp, #111]
	b	.L565
.L564:
	.loc 1 3520 25
	movs	r3, #11
	strb	r3, [sp, #111]
.L565:
	.loc 1 3521 20
	ldrb	r3, [sp, #111]	@ zero_extendqisi2
	cmp	r3, #0
	bne	.L566
	.loc 1 3521 39 discriminator 1
	movs	r3, #8
	strb	r3, [sp, #111]
.L566:
	.loc 1 3522 20
	ldrb	r3, [sp, #111]	@ zero_extendqisi2
	cmp	r3, #4
	bne	.L561
	.loc 1 3523 27
	add	r3, sp, #44
	mov	r0, r3
	bl	dir_register
	mov	r3, r0
	strb	r3, [sp, #111]
	.loc 1 3524 24
	ldrb	r3, [sp, #111]	@ zero_extendqisi2
	cmp	r3, #0
	bne	.L561
	.loc 1 3526 29
	ldr	r3, [sp, #64]
	str	r3, [sp, #104]
	.loc 1 3527 37
	ldr	r3, [sp, #104]
	add	r0, r3, #13
	.loc 1 3527 25
	add	r3, sp, #20
	adds	r3, r3, #2
	movs	r2, #19
	mov	r1, r3
	bl	mem_cpy
	.loc 1 3528 44
	ldrb	r2, [sp, #20]	@ zero_extendqisi2
	.loc 1 3528 28
	ldr	r3, [sp, #104]
	adds	r3, r3, #11
	.loc 1 3528 39
	orr	r2, r2, #32
	uxtb	r2, r2
	strb	r2, [r3]
	.loc 1 3529 28
	ldr	r3, [sp, #72]
	.loc 1 3529 39
	movs	r2, #1
	strb	r2, [r3, #4]
	.loc 1 3530 33
	ldr	r3, [sp, #104]
	adds	r3, r3, #11
	ldrb	r3, [r3]	@ zero_extendqisi2
	.loc 1 3530 44
	and	r3, r3, #16
	.loc 1 3530 28
	cmp	r3, #0
	beq	.L567
	.loc 1 3530 60 discriminator 1
	ldr	r2, [sp, #80]
	.loc 1 3530 74 discriminator 1
	ldr	r3, [sp, #52]
	.loc 1 3530 54 discriminator 1
	cmp	r2, r3
	beq	.L567
	.loc 1 3531 34
	ldr	r4, [sp, #72]
	ldr	r3, [sp, #72]
	ldr	r1, [sp, #104]
	mov	r0, r3
	bl	ld_clust
	mov	r3, r0
	mov	r1, r3
	mov	r0, r4
	bl	clust2sect
	str	r0, [sp, #100]
	.loc 1 3532 32
	ldr	r3, [sp, #100]
	cmp	r3, #0
	bne	.L568
	.loc 1 3533 37
	movs	r3, #2
	strb	r3, [sp, #111]
	b	.L567
.L568:
	.loc 1 3535 39
	ldr	r3, [sp, #72]
	ldr	r1, [sp, #100]
	mov	r0, r3
	bl	move_window
	mov	r3, r0
	strb	r3, [sp, #111]
	.loc 1 3536 42
	ldr	r3, [sp, #72]
	.loc 1 3536 39
	adds	r3, r3, #52
	.loc 1 3536 37
	adds	r3, r3, #32
	str	r3, [sp, #104]
	.loc 1 3537 36
	ldrb	r3, [sp, #111]	@ zero_extendqisi2
	cmp	r3, #0
	bne	.L567
	.loc 1 3537 56 discriminator 1
	ldr	r3, [sp, #104]
	adds	r3, r3, #1
	ldrb	r3, [r3]	@ zero_extendqisi2
	.loc 1 3537 50 discriminator 1
	cmp	r3, #46
	bne	.L567
	.loc 1 3538 37
	ldr	r3, [sp, #52]
	mov	r1, r3
	ldr	r0, [sp, #104]
	bl	st_clust
	.loc 1 3539 40
	ldr	r3, [sp, #72]
	.loc 1 3539 51
	movs	r2, #1
	strb	r2, [r3, #4]
.L567:
	.loc 1 3543 28
	ldrb	r3, [sp, #111]	@ zero_extendqisi2
	cmp	r3, #0
	bne	.L561
	.loc 1 3544 35
	add	r3, sp, #72
	mov	r0, r3
	bl	dir_remove
	mov	r3, r0
	strb	r3, [sp, #111]
	.loc 1 3545 32
	ldrb	r3, [sp, #111]	@ zero_extendqisi2
	cmp	r3, #0
	bne	.L561
	.loc 1 3546 39
	ldr	r3, [sp, #72]
	mov	r0, r3
	bl	sync_fs
	mov	r3, r0
	strb	r3, [sp, #111]
.L561:
	.loc 1 3556 5
	ldrb	r3, [sp, #111]	@ zero_extendqisi2
	.loc 1 3557 1
	mov	r0, r3
	add	sp, sp, #112
.LCFI136:
	@ sp needed
	pop	{r4, pc}
.LFE48:
	.size	f_rename, .-f_rename
	.section	.text.f_utime,"ax",%progbits
	.align	1
	.global	f_utime
	.syntax unified
	.thumb
	.thumb_func
	.fpu fpv5-d16
	.type	f_utime, %function
f_utime:
.LFB49:
	.loc 1 3567 1
	@ args = 0, pretend = 0, frame = 56
	@ frame_needed = 0, uses_anonymous_args = 0
	push	{lr}
.LCFI137:
	sub	sp, sp, #60
.LCFI138:
	str	r0, [sp, #4]
	str	r1, [sp]
	.loc 1 3574 11
	add	r1, sp, #4
	add	r3, sp, #20
	movs	r2, #1
	mov	r0, r3
	bl	find_volume
	mov	r3, r0
	strb	r3, [sp, #55]
	.loc 1 3575 8
	ldrb	r3, [sp, #55]	@ zero_extendqisi2
	cmp	r3, #0
	bne	.L571
	.loc 1 3576 9
	add	r3, sp, #8
	str	r3, [sp, #44]
	.loc 1 3577 15
	ldr	r2, [sp, #4]
	add	r3, sp, #20
	mov	r1, r2
	mov	r0, r3
	bl	follow_path
	mov	r3, r0
	strb	r3, [sp, #55]
	.loc 1 3579 12
	ldrb	r3, [sp, #55]	@ zero_extendqisi2
	cmp	r3, #0
	bne	.L572
	.loc 1 3579 45 discriminator 1
	ldr	r3, [sp, #44]
	.loc 1 3579 48 discriminator 1
	adds	r3, r3, #11
	ldrb	r3, [r3]	@ zero_extendqisi2
	.loc 1 3579 57 discriminator 1
	and	r3, r3, #32
	.loc 1 3579 39 discriminator 1
	cmp	r3, #0
	beq	.L572
	.loc 1 3580 17
	movs	r3, #6
	strb	r3, [sp, #55]
.L572:
	.loc 1 3581 12
	ldrb	r3, [sp, #55]	@ zero_extendqisi2
	cmp	r3, #0
	bne	.L571
	.loc 1 3582 17
	ldr	r3, [sp, #40]
	str	r3, [sp, #48]
	.loc 1 3583 16
	ldr	r3, [sp, #48]
	cmp	r3, #0
	bne	.L573
	.loc 1 3584 21
	movs	r3, #6
	strb	r3, [sp, #55]
	b	.L571
.L573:
	.loc 1 3586 17
	ldr	r3, [sp]
	ldrh	r2, [r3, #6]
	ldr	r3, [sp, #48]
	adds	r3, r3, #22
	uxtb	r2, r2
	strb	r2, [r3]
	ldr	r3, [sp]
	ldrh	r3, [r3, #6]
	lsrs	r3, r3, #8
	uxth	r2, r3
	ldr	r3, [sp, #48]
	adds	r3, r3, #23
	uxtb	r2, r2
	strb	r2, [r3]
	.loc 1 3587 17
	ldr	r3, [sp]
	ldrh	r2, [r3, #4]
	ldr	r3, [sp, #48]
	adds	r3, r3, #24
	uxtb	r2, r2
	strb	r2, [r3]
	ldr	r3, [sp]
	ldrh	r3, [r3, #4]
	lsrs	r3, r3, #8
	uxth	r2, r3
	ldr	r3, [sp, #48]
	adds	r3, r3, #25
	uxtb	r2, r2
	strb	r2, [r3]
	.loc 1 3588 19
	ldr	r3, [sp, #20]
	.loc 1 3588 30
	movs	r2, #1
	strb	r2, [r3, #4]
	.loc 1 3589 23
	ldr	r3, [sp, #20]
	mov	r0, r3
	bl	sync_fs
	mov	r3, r0
	strb	r3, [sp, #55]
.L571:
	.loc 1 3594 5
	ldrb	r3, [sp, #55]	@ zero_extendqisi2
	.loc 1 3595 1
	mov	r0, r3
	add	sp, sp, #60
.LCFI139:
	@ sp needed
	ldr	pc, [sp], #4
.LFE49:
	.size	f_utime, .-f_utime
	.section .rodata
	.align	2
.LC1:
	.ascii	"\353\376\220MSDOS5.0\000"
	.align	2
.LC2:
	.ascii	"NO NAME    FAT32   \000"
	.align	2
.LC3:
	.ascii	"NO NAME    FAT     \000"
	.section	.text.f_mkfs,"ax",%progbits
	.align	1
	.global	f_mkfs
	.syntax unified
	.thumb
	.thumb_func
	.fpu fpv5-d16
	.type	f_mkfs, %function
f_mkfs:
.LFB50:
	.loc 1 3828 1
	@ args = 0, pretend = 0, frame = 96
	@ frame_needed = 0, uses_anonymous_args = 0
	push	{lr}
.LCFI140:
	sub	sp, sp, #100
.LCFI141:
	str	r0, [sp, #12]
	mov	r3, r1
	str	r2, [sp, #4]
	strb	r3, [sp, #11]
	.loc 1 3844 8
	ldrb	r3, [sp, #11]	@ zero_extendqisi2
	cmp	r3, #1
	bls	.L576
	.loc 1 3844 25 discriminator 1
	movs	r3, #19
	b	.L638
.L576:
	.loc 1 3845 11
	add	r3, sp, #12
	mov	r0, r3
	bl	get_ldnumber
	str	r0, [sp, #52]
	.loc 1 3846 8
	ldr	r3, [sp, #52]
	cmp	r3, #0
	bge	.L578
	.loc 1 3846 25 discriminator 1
	movs	r3, #11
	b	.L638
.L578:
	.loc 1 3847 8
	ldr	r2, .L640
	ldr	r3, [sp, #52]
	ldr	r3, [r2, r3, lsl #2]
	str	r3, [sp, #48]
	.loc 1 3848 8
	ldr	r3, [sp, #48]
	cmp	r3, #0
	bne	.L579
	.loc 1 3848 21 discriminator 1
	movs	r3, #12
	b	.L638
.L579:
	.loc 1 3849 17
	ldr	r3, [sp, #48]
	movs	r2, #0
	strb	r2, [r3]
	.loc 1 3850 10
	ldr	r3, [sp, #52]
	strb	r3, [sp, #83]
	.loc 1 3851 10
	movs	r3, #0
	strb	r3, [sp, #82]
	.loc 1 3854 12
	ldrb	r3, [sp, #83]	@ zero_extendqisi2
	mov	r0, r3
	bl	disk_initialize
	mov	r3, r0
	strb	r3, [sp, #81]
	.loc 1 3855 14
	ldrb	r3, [sp, #81]	@ zero_extendqisi2
	and	r3, r3, #1
	.loc 1 3855 8
	cmp	r3, #0
	beq	.L580
	.loc 1 3855 35 discriminator 1
	movs	r3, #3
	b	.L638
.L580:
	.loc 1 3856 14
	ldrb	r3, [sp, #81]	@ zero_extendqisi2
	and	r3, r3, #4
	.loc 1 3856 8
	cmp	r3, #0
	beq	.L581
	.loc 1 3856 36 discriminator 1
	movs	r3, #10
	b	.L638
.L581:
	.loc 1 3871 13
	add	r2, sp, #20
	ldrb	r3, [sp, #83]	@ zero_extendqisi2
	movs	r1, #1
	mov	r0, r3
	bl	disk_ioctl
	mov	r3, r0
	.loc 1 3871 12
	cmp	r3, #0
	bne	.L582
	.loc 1 3871 75 discriminator 1
	ldr	r3, [sp, #20]
	.loc 1 3871 66 discriminator 1
	cmp	r3, #127
	bhi	.L583
.L582:
	.loc 1 3872 20
	movs	r3, #1
	b	.L638
.L583:
	.loc 1 3873 27
	ldrb	r3, [sp, #11]	@ zero_extendqisi2
	cmp	r3, #0
	beq	.L584
	.loc 1 3873 27 is_stmt 0 discriminator 1
	movs	r3, #0
	b	.L585
.L584:
	.loc 1 3873 27 discriminator 2
	movs	r3, #63
.L585:
	.loc 1 3873 15 is_stmt 1 discriminator 4
	str	r3, [sp, #88]
	.loc 1 3874 15 discriminator 4
	ldr	r2, [sp, #20]
	ldr	r3, [sp, #88]
	subs	r3, r2, r3
	str	r3, [sp, #20]
	.loc 1 3877 18 discriminator 4
	ldr	r3, [sp, #4]
	subs	r2, r3, #1
	.loc 1 3877 12 discriminator 4
	ldr	r3, [sp, #4]
	ands	r3, r3, r2
	.loc 1 3877 8 discriminator 4
	cmp	r3, #0
	beq	.L586
	.loc 1 3877 27 discriminator 1
	movs	r3, #0
	str	r3, [sp, #4]
.L586:
	.loc 1 3878 8
	ldr	r3, [sp, #4]
	cmp	r3, #0
	bne	.L587
	.loc 1 3879 20
	ldr	r3, [sp, #20]
	.loc 1 3879 12
	ldr	r2, .L640+4
	umull	r2, r3, r2, r3
	lsrs	r3, r3, #7
	str	r3, [sp, #84]
	.loc 1 3880 16
	movs	r3, #0
	str	r3, [sp, #92]
	.loc 1 3880 9
	b	.L588
.L589:
	.loc 1 3880 35 discriminator 3
	ldr	r3, [sp, #92]
	adds	r3, r3, #1
	str	r3, [sp, #92]
.L588:
	.loc 1 3880 29 discriminator 1
	ldr	r2, .L640+8
	ldr	r3, [sp, #92]
	ldrh	r3, [r2, r3, lsl #1]
	mov	r2, r3
	.loc 1 3880 9 discriminator 1
	ldr	r3, [sp, #84]
	cmp	r3, r2
	bcc	.L589
	.loc 1 3881 17
	ldr	r2, .L640+12
	ldr	r3, [sp, #92]
	ldrh	r3, [r2, r3, lsl #1]
	.loc 1 3881 12
	str	r3, [sp, #4]
.L587:
	.loc 1 3883 8
	ldr	r3, [sp, #4]
	cmp	r3, #512
	bcc	.L590
	.loc 1 3883 27 discriminator 1
	ldr	r3, [sp, #4]
	lsrs	r3, r3, #9
	str	r3, [sp, #4]
.L590:
	.loc 1 3884 8
	ldr	r3, [sp, #4]
	cmp	r3, #0
	bne	.L591
	.loc 1 3884 17 discriminator 1
	movs	r3, #1
	str	r3, [sp, #4]
.L591:
	.loc 1 3885 8
	ldr	r3, [sp, #4]
	cmp	r3, #128
	bls	.L592
	.loc 1 3885 22 discriminator 1
	movs	r3, #128
	str	r3, [sp, #4]
.L592:
	.loc 1 3888 20
	ldr	r2, [sp, #20]
	.loc 1 3888 12
	ldr	r3, [sp, #4]
	udiv	r3, r2, r3
	str	r3, [sp, #40]
	.loc 1 3889 9
	movs	r3, #1
	strb	r3, [sp, #47]
	.loc 1 3890 8
	ldr	r3, [sp, #40]
	movw	r2, #4085
	cmp	r3, r2
	bls	.L593
	.loc 1 3890 34 discriminator 1
	movs	r3, #2
	strb	r3, [sp, #47]
.L593:
	.loc 1 3891 8
	ldr	r3, [sp, #40]
	movw	r2, #65525
	cmp	r3, r2
	bls	.L594
	.loc 1 3891 34 discriminator 1
	movs	r3, #3
	strb	r3, [sp, #47]
.L594:
	.loc 1 3894 8
	ldrb	r3, [sp, #47]	@ zero_extendqisi2
	cmp	r3, #3
	bne	.L595
	.loc 1 3895 35
	ldr	r3, [sp, #40]
	adds	r3, r3, #130
	lsls	r3, r3, #2
	.loc 1 3895 44
	subs	r3, r3, #1
	.loc 1 3895 15
	lsrs	r3, r3, #9
	str	r3, [sp, #60]
	.loc 1 3896 15
	movs	r3, #32
	str	r3, [sp, #64]
	.loc 1 3897 15
	movs	r3, #0
	str	r3, [sp, #56]
	b	.L596
.L595:
	.loc 1 3899 62
	ldrb	r3, [sp, #47]	@ zero_extendqisi2
	cmp	r3, #1
	bne	.L597
	.loc 1 3899 45 discriminator 1
	ldr	r2, [sp, #40]
	mov	r3, r2
	lsls	r3, r3, #1
	add	r3, r3, r2
	.loc 1 3899 49 discriminator 1
	adds	r3, r3, #1
	.loc 1 3899 54 discriminator 1
	lsrs	r3, r3, #1
	.loc 1 3899 62 discriminator 1
	adds	r3, r3, #3
	b	.L598
.L597:
	.loc 1 3899 77 discriminator 2
	ldr	r3, [sp, #40]
	adds	r3, r3, #2
	.loc 1 3899 62 discriminator 2
	lsls	r3, r3, #1
.L598:
	.loc 1 3899 15 discriminator 4
	str	r3, [sp, #60]
	.loc 1 3900 33 discriminator 4
	ldr	r3, [sp, #60]
	addw	r3, r3, #511
	.loc 1 3900 15 discriminator 4
	lsrs	r3, r3, #9
	str	r3, [sp, #60]
	.loc 1 3901 15 discriminator 4
	movs	r3, #1
	str	r3, [sp, #64]
	.loc 1 3902 15 discriminator 4
	movs	r3, #32
	str	r3, [sp, #56]
.L596:
	.loc 1 3904 11
	ldr	r2, [sp, #88]
	ldr	r3, [sp, #64]
	add	r3, r3, r2
	str	r3, [sp, #68]
	.loc 1 3905 11
	ldr	r2, [sp, #68]
	ldr	r3, [sp, #60]
	add	r3, r3, r2
	str	r3, [sp, #36]
	.loc 1 3906 12
	ldr	r2, [sp, #36]
	ldr	r3, [sp, #56]
	add	r3, r3, r2
	str	r3, [sp, #32]
	.loc 1 3907 24
	ldr	r2, [sp, #32]
	ldr	r3, [sp, #4]
	add	r2, r2, r3
	.loc 1 3907 29
	ldr	r3, [sp, #88]
	subs	r2, r2, r3
	.loc 1 3907 15
	ldr	r3, [sp, #20]
	.loc 1 3907 8
	cmp	r2, r3
	bls	.L599
	.loc 1 3907 45 discriminator 1
	movs	r3, #14
	b	.L638
.L599:
	.loc 1 3910 9
	add	r2, sp, #24
	ldrb	r3, [sp, #83]	@ zero_extendqisi2
	movs	r1, #3
	mov	r0, r3
	bl	disk_ioctl
	mov	r3, r0
	.loc 1 3910 8
	cmp	r3, #0
	bne	.L600
	.loc 1 3910 59 discriminator 2
	ldr	r3, [sp, #24]
	.loc 1 3910 56 discriminator 2
	cmp	r3, #0
	beq	.L600
	.loc 1 3910 67 discriminator 4
	ldr	r3, [sp, #24]
	.loc 1 3910 62 discriminator 4
	cmp	r3, #32768
	bls	.L601
.L600:
	.loc 1 3910 78 discriminator 5
	movs	r3, #1
	str	r3, [sp, #24]
.L601:
	.loc 1 3911 17
	ldr	r2, [sp, #24]
	ldr	r3, [sp, #32]
	add	r3, r3, r2
	.loc 1 3911 21
	subs	r2, r3, #1
	.loc 1 3911 28
	ldr	r3, [sp, #24]
	rsbs	r3, r3, #0
	.loc 1 3911 26
	ands	r3, r3, r2
	.loc 1 3911 7
	str	r3, [sp, #24]
	.loc 1 3912 22
	ldr	r2, [sp, #24]
	.loc 1 3912 12
	ldr	r3, [sp, #32]
	subs	r3, r2, r3
	.loc 1 3912 7
	str	r3, [sp, #24]
	.loc 1 3913 8
	ldrb	r3, [sp, #47]	@ zero_extendqisi2
	cmp	r3, #3
	bne	.L602
	.loc 1 3914 15
	ldr	r3, [sp, #24]
	ldr	r2, [sp, #64]
	add	r3, r3, r2
	str	r3, [sp, #64]
	.loc 1 3915 15
	ldr	r3, [sp, #24]
	ldr	r2, [sp, #68]
	add	r3, r3, r2
	str	r3, [sp, #68]
	b	.L603
.L602:
	.loc 1 3917 15
	ldr	r3, [sp, #24]
	ldr	r2, [sp, #60]
	add	r3, r3, r2
	str	r3, [sp, #60]
.L603:
	.loc 1 3921 21
	ldr	r2, [sp, #20]
	ldr	r3, [sp, #64]
	subs	r2, r2, r3
	.loc 1 3921 29
	ldr	r3, [sp, #60]
	subs	r2, r2, r3
	.loc 1 3921 46
	ldr	r3, [sp, #56]
	subs	r2, r2, r3
	.loc 1 3921 12
	ldr	r3, [sp, #4]
	udiv	r3, r2, r3
	str	r3, [sp, #40]
	.loc 1 3922 8
	ldrb	r3, [sp, #47]	@ zero_extendqisi2
	cmp	r3, #2
	bne	.L604
	.loc 1 3922 29 discriminator 1
	ldr	r3, [sp, #40]
	movw	r2, #4085
	cmp	r3, r2
	bls	.L605
.L604:
	.loc 1 3923 9
	ldrb	r3, [sp, #47]	@ zero_extendqisi2
	cmp	r3, #3
	bne	.L606
	.loc 1 3923 29 discriminator 1
	ldr	r3, [sp, #40]
	movw	r2, #65525
	cmp	r3, r2
	bhi	.L606
.L605:
	.loc 1 3924 16
	movs	r3, #14
	b	.L638
.L606:
	.loc 1 3927 8
	ldrb	r3, [sp, #47]	@ zero_extendqisi2
	cmp	r3, #3
	bne	.L607
	.loc 1 3928 13
	movs	r3, #12
	strb	r3, [sp, #79]
	b	.L639
.L607:
	.loc 1 3930 12
	ldrb	r3, [sp, #47]	@ zero_extendqisi2
	cmp	r3, #1
	bne	.L609
	.loc 1 3930 38 discriminator 1
	ldr	r3, [sp, #20]
	.loc 1 3930 29 discriminator 1
	cmp	r3, #65536
	bcs	.L609
	.loc 1 3931 17
	movs	r3, #1
	strb	r3, [sp, #79]
	b	.L639
.L609:
	.loc 1 3933 26
	ldr	r3, [sp, #20]
	.loc 1 3933 17
	cmp	r3, #65536
	bcs	.L610
	.loc 1 3933 17 is_stmt 0 discriminator 1
	movs	r3, #4
	b	.L611
.L610:
	.loc 1 3933 17 discriminator 2
	movs	r3, #6
.L611:
	.loc 1 3933 17 discriminator 4
	strb	r3, [sp, #79]
.L639:
	.loc 1 3945 12 is_stmt 1
	ldrb	r3, [sp, #11]	@ zero_extendqisi2
	cmp	r3, #0
	beq	.L612
	.loc 1 3946 16
	movs	r3, #240
	strb	r3, [sp, #80]
	b	.L613
.L641:
	.align	2
.L640:
	.word	FatFs
	.word	274877907
	.word	vst.1
	.word	cst.0
.L612:
	.loc 1 3948 23
	ldr	r3, [sp, #48]
	adds	r3, r3, #52
	.loc 1 3948 13
	mov	r2, #512
	movs	r1, #0
	mov	r0, r3
	bl	mem_set
	.loc 1 3949 19
	ldr	r3, [sp, #48]
	adds	r3, r3, #52
	.loc 1 3949 17
	add	r3, r3, #446
	str	r3, [sp, #28]
	.loc 1 3950 16
	ldr	r3, [sp, #28]
	adds	r3, r3, #1
	.loc 1 3950 20
	movs	r2, #1
	strb	r2, [r3]
	.loc 1 3951 16
	ldr	r3, [sp, #28]
	adds	r3, r3, #2
	.loc 1 3951 20
	movs	r2, #1
	strb	r2, [r3]
	.loc 1 3952 16
	ldr	r3, [sp, #28]
	adds	r3, r3, #3
	.loc 1 3952 20
	movs	r2, #0
	strb	r2, [r3]
	.loc 1 3953 16
	ldr	r3, [sp, #28]
	adds	r3, r3, #4
	.loc 1 3953 20
	ldrb	r2, [sp, #79]
	strb	r2, [r3]
	.loc 1 3954 16
	ldr	r3, [sp, #28]
	adds	r3, r3, #5
	.loc 1 3954 20
	movs	r2, #254
	strb	r2, [r3]
	.loc 1 3955 24
	ldr	r2, [sp, #20]
	ldr	r3, [sp, #88]
	add	r2, r2, r3
	.loc 1 3955 38
	ldr	r3, .L642
	umull	r1, r3, r3, r2
	subs	r2, r2, r3
	lsrs	r2, r2, #1
	add	r3, r3, r2
	lsrs	r3, r3, #13
	.loc 1 3955 15
	str	r3, [sp, #24]
	.loc 1 3956 31
	ldr	r3, [sp, #24]
	lsrs	r3, r3, #2
	.loc 1 3956 22
	uxtb	r2, r3
	.loc 1 3956 16
	ldr	r3, [sp, #28]
	adds	r3, r3, #6
	.loc 1 3956 22
	orr	r2, r2, #63
	uxtb	r2, r2
	.loc 1 3956 20
	strb	r2, [r3]
	.loc 1 3957 22
	ldr	r2, [sp, #24]
	.loc 1 3957 16
	ldr	r3, [sp, #28]
	adds	r3, r3, #7
	.loc 1 3957 22
	uxtb	r2, r2
	.loc 1 3957 20
	strb	r2, [r3]
	.loc 1 3958 13
	ldr	r3, [sp, #28]
	adds	r3, r3, #8
	movs	r2, #63
	strb	r2, [r3]
	ldr	r3, [sp, #28]
	adds	r3, r3, #9
	movs	r2, #0
	strb	r2, [r3]
	ldr	r3, [sp, #28]
	adds	r3, r3, #10
	movs	r2, #0
	strb	r2, [r3]
	ldr	r3, [sp, #28]
	adds	r3, r3, #11
	movs	r2, #0
	strb	r2, [r3]
	.loc 1 3959 13
	ldr	r2, [sp, #20]
	ldr	r3, [sp, #28]
	adds	r3, r3, #12
	uxtb	r2, r2
	strb	r2, [r3]
	ldr	r3, [sp, #20]
	uxth	r3, r3
	lsrs	r3, r3, #8
	uxth	r2, r3
	ldr	r3, [sp, #28]
	adds	r3, r3, #13
	uxtb	r2, r2
	strb	r2, [r3]
	ldr	r3, [sp, #20]
	lsrs	r2, r3, #16
	ldr	r3, [sp, #28]
	adds	r3, r3, #14
	uxtb	r2, r2
	strb	r2, [r3]
	ldr	r3, [sp, #20]
	lsrs	r2, r3, #24
	ldr	r3, [sp, #28]
	adds	r3, r3, #15
	uxtb	r2, r2
	strb	r2, [r3]
	.loc 1 3960 13
	ldr	r3, [sp, #48]
	movs	r2, #85
	strb	r2, [r3, #562]
	ldr	r3, [sp, #48]
	movs	r2, #170
	strb	r2, [r3, #563]
	.loc 1 3961 36
	ldr	r3, [sp, #48]
	add	r1, r3, #52
	.loc 1 3961 17
	ldrb	r0, [sp, #83]	@ zero_extendqisi2
	movs	r3, #1
	movs	r2, #0
	bl	disk_write
	mov	r3, r0
	.loc 1 3961 16
	cmp	r3, #0
	beq	.L614
	.loc 1 3962 24
	movs	r3, #1
	b	.L638
.L614:
	.loc 1 3963 16
	movs	r3, #248
	strb	r3, [sp, #80]
.L613:
	.loc 1 3968 9
	ldr	r3, [sp, #48]
	adds	r3, r3, #52
	str	r3, [sp, #28]
	.loc 1 3969 5
	mov	r2, #512
	movs	r1, #0
	ldr	r0, [sp, #28]
	bl	mem_set
	.loc 1 3970 5
	movs	r2, #11
	ldr	r1, .L642+4
	ldr	r0, [sp, #28]
	bl	mem_cpy
	.loc 1 3971 7
	mov	r3, #512
	str	r3, [sp, #92]
	.loc 1 3972 5
	ldr	r3, [sp, #28]
	adds	r3, r3, #11
	ldr	r2, [sp, #92]
	uxtb	r2, r2
	strb	r2, [r3]
	ldr	r3, [sp, #92]
	uxth	r3, r3
	lsrs	r3, r3, #8
	uxth	r2, r3
	ldr	r3, [sp, #28]
	adds	r3, r3, #12
	uxtb	r2, r2
	strb	r2, [r3]
	.loc 1 3973 8
	ldr	r3, [sp, #28]
	adds	r3, r3, #13
	.loc 1 3973 27
	ldr	r2, [sp, #4]
	uxtb	r2, r2
	.loc 1 3973 25
	strb	r2, [r3]
	.loc 1 3974 5
	ldr	r3, [sp, #28]
	adds	r3, r3, #14
	ldr	r2, [sp, #64]
	uxtb	r2, r2
	strb	r2, [r3]
	ldr	r3, [sp, #64]
	uxth	r3, r3
	lsrs	r3, r3, #8
	uxth	r2, r3
	ldr	r3, [sp, #28]
	adds	r3, r3, #15
	uxtb	r2, r2
	strb	r2, [r3]
	.loc 1 3975 8
	ldr	r3, [sp, #28]
	adds	r3, r3, #16
	.loc 1 3975 22
	movs	r2, #1
	strb	r2, [r3]
	.loc 1 3976 31
	ldrb	r3, [sp, #47]	@ zero_extendqisi2
	cmp	r3, #3
	bne	.L615
	.loc 1 3976 31 is_stmt 0 discriminator 1
	movs	r3, #0
	b	.L616
.L615:
	.loc 1 3976 31 discriminator 2
	mov	r3, #512
.L616:
	.loc 1 3976 7 is_stmt 1 discriminator 4
	str	r3, [sp, #92]
	.loc 1 3977 5 discriminator 4
	ldr	r3, [sp, #28]
	adds	r3, r3, #17
	ldr	r2, [sp, #92]
	uxtb	r2, r2
	strb	r2, [r3]
	ldr	r3, [sp, #92]
	uxth	r3, r3
	lsrs	r3, r3, #8
	uxth	r2, r3
	ldr	r3, [sp, #28]
	adds	r3, r3, #18
	uxtb	r2, r2
	strb	r2, [r3]
	.loc 1 3978 15 discriminator 4
	ldr	r3, [sp, #20]
	.loc 1 3978 8 discriminator 4
	cmp	r3, #65536
	bcs	.L617
	.loc 1 3979 9
	ldr	r2, [sp, #20]
	ldr	r3, [sp, #28]
	adds	r3, r3, #19
	uxtb	r2, r2
	strb	r2, [r3]
	ldr	r3, [sp, #20]
	uxth	r3, r3
	lsrs	r3, r3, #8
	uxth	r2, r3
	ldr	r3, [sp, #28]
	adds	r3, r3, #20
	uxtb	r2, r2
	strb	r2, [r3]
	b	.L618
.L643:
	.align	2
.L642:
	.word	85284443
	.word	.LC1
.L617:
	.loc 1 3981 9
	ldr	r2, [sp, #20]
	ldr	r3, [sp, #28]
	adds	r3, r3, #32
	uxtb	r2, r2
	strb	r2, [r3]
	ldr	r3, [sp, #20]
	uxth	r3, r3
	lsrs	r3, r3, #8
	uxth	r2, r3
	ldr	r3, [sp, #28]
	adds	r3, r3, #33
	uxtb	r2, r2
	strb	r2, [r3]
	ldr	r3, [sp, #20]
	lsrs	r2, r3, #16
	ldr	r3, [sp, #28]
	adds	r3, r3, #34
	uxtb	r2, r2
	strb	r2, [r3]
	ldr	r3, [sp, #20]
	lsrs	r2, r3, #24
	ldr	r3, [sp, #28]
	adds	r3, r3, #35
	uxtb	r2, r2
	strb	r2, [r3]
.L618:
	.loc 1 3983 8
	ldr	r3, [sp, #28]
	adds	r3, r3, #21
	.loc 1 3983 20
	ldrb	r2, [sp, #80]
	strb	r2, [r3]
	.loc 1 3984 5
	ldr	r3, [sp, #28]
	adds	r3, r3, #24
	movs	r2, #63
	strb	r2, [r3]
	ldr	r3, [sp, #28]
	adds	r3, r3, #25
	movs	r2, #0
	strb	r2, [r3]
	.loc 1 3985 5
	ldr	r3, [sp, #28]
	adds	r3, r3, #26
	movs	r2, #255
	strb	r2, [r3]
	ldr	r3, [sp, #28]
	adds	r3, r3, #27
	movs	r2, #0
	strb	r2, [r3]
	.loc 1 3986 5
	ldr	r3, [sp, #28]
	adds	r3, r3, #28
	ldr	r2, [sp, #88]
	uxtb	r2, r2
	strb	r2, [r3]
	ldr	r3, [sp, #88]
	uxth	r3, r3
	lsrs	r3, r3, #8
	uxth	r2, r3
	ldr	r3, [sp, #28]
	adds	r3, r3, #29
	uxtb	r2, r2
	strb	r2, [r3]
	ldr	r3, [sp, #88]
	lsrs	r2, r3, #16
	ldr	r3, [sp, #28]
	adds	r3, r3, #30
	uxtb	r2, r2
	strb	r2, [r3]
	ldr	r3, [sp, #88]
	lsrs	r2, r3, #24
	ldr	r3, [sp, #28]
	adds	r3, r3, #31
	uxtb	r2, r2
	strb	r2, [r3]
	.loc 1 3987 9
	bl	get_fattime
	mov	r3, r0
	.loc 1 3987 7
	str	r3, [sp, #24]
	.loc 1 3988 8
	ldrb	r3, [sp, #47]	@ zero_extendqisi2
	cmp	r3, #3
	bne	.L619
	.loc 1 3989 9
	ldr	r2, [sp, #24]
	ldr	r3, [sp, #28]
	adds	r3, r3, #67
	uxtb	r2, r2
	strb	r2, [r3]
	ldr	r3, [sp, #24]
	uxth	r3, r3
	lsrs	r3, r3, #8
	uxth	r2, r3
	ldr	r3, [sp, #28]
	adds	r3, r3, #68
	uxtb	r2, r2
	strb	r2, [r3]
	ldr	r3, [sp, #24]
	lsrs	r2, r3, #16
	ldr	r3, [sp, #28]
	adds	r3, r3, #69
	uxtb	r2, r2
	strb	r2, [r3]
	ldr	r3, [sp, #24]
	lsrs	r2, r3, #24
	ldr	r3, [sp, #28]
	adds	r3, r3, #70
	uxtb	r2, r2
	strb	r2, [r3]
	.loc 1 3990 9
	ldr	r3, [sp, #28]
	adds	r3, r3, #36
	ldr	r2, [sp, #60]
	uxtb	r2, r2
	strb	r2, [r3]
	ldr	r3, [sp, #60]
	uxth	r3, r3
	lsrs	r3, r3, #8
	uxth	r2, r3
	ldr	r3, [sp, #28]
	adds	r3, r3, #37
	uxtb	r2, r2
	strb	r2, [r3]
	ldr	r3, [sp, #60]
	lsrs	r2, r3, #16
	ldr	r3, [sp, #28]
	adds	r3, r3, #38
	uxtb	r2, r2
	strb	r2, [r3]
	ldr	r3, [sp, #60]
	lsrs	r2, r3, #24
	ldr	r3, [sp, #28]
	adds	r3, r3, #39
	uxtb	r2, r2
	strb	r2, [r3]
	.loc 1 3991 9
	ldr	r3, [sp, #28]
	adds	r3, r3, #44
	movs	r2, #2
	strb	r2, [r3]
	ldr	r3, [sp, #28]
	adds	r3, r3, #45
	movs	r2, #0
	strb	r2, [r3]
	ldr	r3, [sp, #28]
	adds	r3, r3, #46
	movs	r2, #0
	strb	r2, [r3]
	ldr	r3, [sp, #28]
	adds	r3, r3, #47
	movs	r2, #0
	strb	r2, [r3]
	.loc 1 3992 9
	ldr	r3, [sp, #28]
	adds	r3, r3, #48
	movs	r2, #1
	strb	r2, [r3]
	ldr	r3, [sp, #28]
	adds	r3, r3, #49
	movs	r2, #0
	strb	r2, [r3]
	.loc 1 3993 9
	ldr	r3, [sp, #28]
	adds	r3, r3, #50
	movs	r2, #6
	strb	r2, [r3]
	ldr	r3, [sp, #28]
	adds	r3, r3, #51
	movs	r2, #0
	strb	r2, [r3]
	.loc 1 3994 12
	ldr	r3, [sp, #28]
	adds	r3, r3, #64
	.loc 1 3994 26
	movs	r2, #128
	strb	r2, [r3]
	.loc 1 3995 12
	ldr	r3, [sp, #28]
	adds	r3, r3, #66
	.loc 1 3995 27
	movs	r2, #41
	strb	r2, [r3]
	.loc 1 3996 21
	ldr	r3, [sp, #28]
	adds	r3, r3, #71
	.loc 1 3996 9
	movs	r2, #19
	ldr	r1, .L644
	mov	r0, r3
	bl	mem_cpy
	b	.L620
.L619:
	.loc 1 3998 9
	ldr	r2, [sp, #24]
	ldr	r3, [sp, #28]
	adds	r3, r3, #39
	uxtb	r2, r2
	strb	r2, [r3]
	ldr	r3, [sp, #24]
	uxth	r3, r3
	lsrs	r3, r3, #8
	uxth	r2, r3
	ldr	r3, [sp, #28]
	adds	r3, r3, #40
	uxtb	r2, r2
	strb	r2, [r3]
	ldr	r3, [sp, #24]
	lsrs	r2, r3, #16
	ldr	r3, [sp, #28]
	adds	r3, r3, #41
	uxtb	r2, r2
	strb	r2, [r3]
	ldr	r3, [sp, #24]
	lsrs	r2, r3, #24
	ldr	r3, [sp, #28]
	adds	r3, r3, #42
	uxtb	r2, r2
	strb	r2, [r3]
	.loc 1 3999 9
	ldr	r3, [sp, #28]
	adds	r3, r3, #22
	ldr	r2, [sp, #60]
	uxtb	r2, r2
	strb	r2, [r3]
	ldr	r3, [sp, #60]
	uxth	r3, r3
	lsrs	r3, r3, #8
	uxth	r2, r3
	ldr	r3, [sp, #28]
	adds	r3, r3, #23
	uxtb	r2, r2
	strb	r2, [r3]
	.loc 1 4000 12
	ldr	r3, [sp, #28]
	adds	r3, r3, #36
	.loc 1 4000 24
	movs	r2, #128
	strb	r2, [r3]
	.loc 1 4001 12
	ldr	r3, [sp, #28]
	adds	r3, r3, #38
	.loc 1 4001 25
	movs	r2, #41
	strb	r2, [r3]
	.loc 1 4002 21
	ldr	r3, [sp, #28]
	adds	r3, r3, #43
	.loc 1 4002 9
	movs	r2, #19
	ldr	r1, .L644+4
	mov	r0, r3
	bl	mem_cpy
.L620:
	.loc 1 4004 5
	ldr	r3, [sp, #28]
	add	r3, r3, #510
	movs	r2, #85
	strb	r2, [r3]
	ldr	r3, [sp, #28]
	addw	r3, r3, #511
	movs	r2, #170
	strb	r2, [r3]
	.loc 1 4005 9
	ldrb	r0, [sp, #83]	@ zero_extendqisi2
	movs	r3, #1
	ldr	r2, [sp, #88]
	ldr	r1, [sp, #28]
	bl	disk_write
	mov	r3, r0
	.loc 1 4005 8
	cmp	r3, #0
	beq	.L621
	.loc 1 4006 16
	movs	r3, #1
	b	.L638
.L621:
	.loc 1 4007 8
	ldrb	r3, [sp, #47]	@ zero_extendqisi2
	cmp	r3, #3
	bne	.L622
	.loc 1 4008 37
	ldr	r3, [sp, #88]
	adds	r2, r3, #6
	.loc 1 4008 9
	ldrb	r0, [sp, #83]	@ zero_extendqisi2
	movs	r3, #1
	ldr	r1, [sp, #28]
	bl	disk_write
.L622:
	.loc 1 4011 11
	ldr	r3, [sp, #68]
	str	r3, [sp, #72]
	.loc 1 4012 12
	movs	r3, #0
	str	r3, [sp, #92]
	.loc 1 4012 5
	b	.L623
.L632:
	.loc 1 4013 9
	mov	r2, #512
	movs	r1, #0
	ldr	r0, [sp, #28]
	bl	mem_set
	.loc 1 4014 11
	ldrb	r3, [sp, #80]	@ zero_extendqisi2
	str	r3, [sp, #24]
	.loc 1 4015 12
	ldrb	r3, [sp, #47]	@ zero_extendqisi2
	cmp	r3, #3
	beq	.L624
	.loc 1 4016 49
	ldrb	r3, [sp, #47]	@ zero_extendqisi2
	cmp	r3, #1
	bne	.L625
	.loc 1 4016 49 is_stmt 0 discriminator 1
	ldr	r2, .L644+8
	b	.L626
.L625:
	.loc 1 4016 49 discriminator 2
	mvn	r2, #255
.L626:
	.loc 1 4016 15 is_stmt 1 discriminator 4
	ldr	r3, [sp, #24]
	orrs	r3, r3, r2
	str	r3, [sp, #24]
	.loc 1 4017 13 discriminator 4
	ldr	r3, [sp, #24]
	uxtb	r2, r3
	ldr	r3, [sp, #28]
	strb	r2, [r3]
	ldr	r3, [sp, #24]
	uxth	r3, r3
	lsrs	r3, r3, #8
	uxth	r2, r3
	ldr	r3, [sp, #28]
	adds	r3, r3, #1
	uxtb	r2, r2
	strb	r2, [r3]
	ldr	r3, [sp, #24]
	lsrs	r2, r3, #16
	ldr	r3, [sp, #28]
	adds	r3, r3, #2
	uxtb	r2, r2
	strb	r2, [r3]
	ldr	r3, [sp, #24]
	lsrs	r2, r3, #24
	ldr	r3, [sp, #28]
	adds	r3, r3, #3
	uxtb	r2, r2
	strb	r2, [r3]
	b	.L627
.L624:
	.loc 1 4019 15
	ldr	r3, [sp, #24]
	orn	r3, r3, #255
	str	r3, [sp, #24]
	.loc 1 4020 13
	ldr	r3, [sp, #24]
	uxtb	r2, r3
	ldr	r3, [sp, #28]
	strb	r2, [r3]
	ldr	r3, [sp, #24]
	uxth	r3, r3
	lsrs	r3, r3, #8
	uxth	r2, r3
	ldr	r3, [sp, #28]
	adds	r3, r3, #1
	uxtb	r2, r2
	strb	r2, [r3]
	ldr	r3, [sp, #24]
	lsrs	r2, r3, #16
	ldr	r3, [sp, #28]
	adds	r3, r3, #2
	uxtb	r2, r2
	strb	r2, [r3]
	ldr	r3, [sp, #24]
	lsrs	r2, r3, #24
	ldr	r3, [sp, #28]
	adds	r3, r3, #3
	uxtb	r2, r2
	strb	r2, [r3]
	.loc 1 4021 13
	ldr	r3, [sp, #28]
	adds	r3, r3, #4
	movs	r2, #255
	strb	r2, [r3]
	ldr	r3, [sp, #28]
	adds	r3, r3, #5
	movs	r2, #255
	strb	r2, [r3]
	ldr	r3, [sp, #28]
	adds	r3, r3, #6
	movs	r2, #255
	strb	r2, [r3]
	ldr	r3, [sp, #28]
	adds	r3, r3, #7
	movs	r2, #255
	strb	r2, [r3]
	.loc 1 4022 13
	ldr	r3, [sp, #28]
	adds	r3, r3, #8
	movs	r2, #255
	strb	r2, [r3]
	ldr	r3, [sp, #28]
	adds	r3, r3, #9
	movs	r2, #255
	strb	r2, [r3]
	ldr	r3, [sp, #28]
	adds	r3, r3, #10
	movs	r2, #255
	strb	r2, [r3]
	ldr	r3, [sp, #28]
	adds	r3, r3, #11
	movs	r2, #15
	strb	r2, [r3]
.L627:
	.loc 1 4024 13
	ldr	r2, [sp, #72]
	adds	r3, r2, #1
	str	r3, [sp, #72]
	ldrb	r0, [sp, #83]	@ zero_extendqisi2
	movs	r3, #1
	ldr	r1, [sp, #28]
	bl	disk_write
	mov	r3, r0
	.loc 1 4024 12
	cmp	r3, #0
	beq	.L628
	.loc 1 4025 20
	movs	r3, #1
	b	.L638
.L628:
	.loc 1 4026 9
	mov	r2, #512
	movs	r1, #0
	ldr	r0, [sp, #28]
	bl	mem_set
	.loc 1 4027 16
	movs	r3, #1
	str	r3, [sp, #24]
	.loc 1 4027 9
	b	.L629
.L631:
	.loc 1 4028 17
	ldr	r2, [sp, #72]
	adds	r3, r2, #1
	str	r3, [sp, #72]
	ldrb	r0, [sp, #83]	@ zero_extendqisi2
	movs	r3, #1
	ldr	r1, [sp, #28]
	bl	disk_write
	mov	r3, r0
	.loc 1 4028 16
	cmp	r3, #0
	beq	.L630
	.loc 1 4029 24
	movs	r3, #1
	b	.L638
.L630:
	.loc 1 4027 33 discriminator 2
	ldr	r3, [sp, #24]
	adds	r3, r3, #1
	str	r3, [sp, #24]
.L629:
	.loc 1 4027 23 discriminator 1
	ldr	r3, [sp, #24]
	.loc 1 4027 9 discriminator 1
	ldr	r2, [sp, #60]
	cmp	r2, r3
	bhi	.L631
	.loc 1 4012 30 discriminator 2
	ldr	r3, [sp, #92]
	adds	r3, r3, #1
	str	r3, [sp, #92]
.L623:
	.loc 1 4012 5 discriminator 1
	ldr	r3, [sp, #92]
	cmp	r3, #0
	beq	.L632
	.loc 1 4034 32
	ldrb	r3, [sp, #47]	@ zero_extendqisi2
	cmp	r3, #3
	bne	.L633
	.loc 1 4034 32 is_stmt 0 discriminator 1
	ldr	r3, [sp, #4]
	b	.L634
.L633:
	.loc 1 4034 32 discriminator 2
	ldr	r3, [sp, #56]
.L634:
	.loc 1 4034 7 is_stmt 1 discriminator 4
	str	r3, [sp, #92]
.L636:
	.loc 1 4036 13
	ldr	r2, [sp, #72]
	adds	r3, r2, #1
	str	r3, [sp, #72]
	ldrb	r0, [sp, #83]	@ zero_extendqisi2
	movs	r3, #1
	ldr	r1, [sp, #28]
	bl	disk_write
	mov	r3, r0
	.loc 1 4036 12
	cmp	r3, #0
	beq	.L635
	.loc 1 4037 20
	movs	r3, #1
	b	.L638
.L645:
	.align	2
.L644:
	.word	.LC2
	.word	.LC3
	.word	16776960
.L635:
	.loc 1 4038 5
	ldr	r3, [sp, #92]
	subs	r3, r3, #1
	str	r3, [sp, #92]
	ldr	r3, [sp, #92]
	cmp	r3, #0
	bne	.L636
	.loc 1 4048 8
	ldrb	r3, [sp, #47]	@ zero_extendqisi2
	cmp	r3, #3
	bne	.L637
	.loc 1 4049 9
	ldr	r3, [sp, #28]
	movs	r2, #82
	strb	r2, [r3]
	ldr	r3, [sp, #28]
	adds	r3, r3, #1
	movs	r2, #82
	strb	r2, [r3]
	ldr	r3, [sp, #28]
	adds	r3, r3, #2
	movs	r2, #97
	strb	r2, [r3]
	ldr	r3, [sp, #28]
	adds	r3, r3, #3
	movs	r2, #65
	strb	r2, [r3]
	.loc 1 4050 9
	ldr	r3, [sp, #28]
	add	r3, r3, #484
	movs	r2, #114
	strb	r2, [r3]
	ldr	r3, [sp, #28]
	addw	r3, r3, #485
	movs	r2, #114
	strb	r2, [r3]
	ldr	r3, [sp, #28]
	add	r3, r3, #486
	movs	r2, #65
	strb	r2, [r3]
	ldr	r3, [sp, #28]
	addw	r3, r3, #487
	movs	r2, #97
	strb	r2, [r3]
	.loc 1 4051 9
	ldr	r3, [sp, #40]
	uxtb	r2, r3
	ldr	r3, [sp, #28]
	add	r3, r3, #488
	subs	r2, r2, #1
	uxtb	r2, r2
	strb	r2, [r3]
	ldr	r3, [sp, #40]
	uxth	r3, r3
	subs	r3, r3, #1
	uxth	r3, r3
	lsrs	r3, r3, #8
	uxth	r2, r3
	ldr	r3, [sp, #28]
	addw	r3, r3, #489
	uxtb	r2, r2
	strb	r2, [r3]
	ldr	r3, [sp, #40]
	subs	r3, r3, #1
	lsrs	r2, r3, #16
	ldr	r3, [sp, #28]
	add	r3, r3, #490
	uxtb	r2, r2
	strb	r2, [r3]
	ldr	r3, [sp, #40]
	subs	r3, r3, #1
	lsrs	r2, r3, #24
	ldr	r3, [sp, #28]
	addw	r3, r3, #491
	uxtb	r2, r2
	strb	r2, [r3]
	.loc 1 4052 9
	ldr	r3, [sp, #28]
	add	r3, r3, #492
	movs	r2, #2
	strb	r2, [r3]
	ldr	r3, [sp, #28]
	addw	r3, r3, #493
	movs	r2, #0
	strb	r2, [r3]
	ldr	r3, [sp, #28]
	add	r3, r3, #494
	movs	r2, #0
	strb	r2, [r3]
	ldr	r3, [sp, #28]
	addw	r3, r3, #495
	movs	r2, #0
	strb	r2, [r3]
	.loc 1 4053 9
	ldr	r3, [sp, #28]
	add	r3, r3, #510
	movs	r2, #85
	strb	r2, [r3]
	ldr	r3, [sp, #28]
	addw	r3, r3, #511
	movs	r2, #170
	strb	r2, [r3]
	.loc 1 4054 37
	ldr	r3, [sp, #88]
	adds	r2, r3, #1
	.loc 1 4054 9
	ldrb	r0, [sp, #83]	@ zero_extendqisi2
	movs	r3, #1
	ldr	r1, [sp, #28]
	bl	disk_write
	.loc 1 4055 37
	ldr	r3, [sp, #88]
	adds	r2, r3, #7
	.loc 1 4055 9
	ldrb	r0, [sp, #83]	@ zero_extendqisi2
	movs	r3, #1
	ldr	r1, [sp, #28]
	bl	disk_write
.L637:
	.loc 1 4058 13
	ldrb	r3, [sp, #83]	@ zero_extendqisi2
	movs	r2, #0
	movs	r1, #0
	mov	r0, r3
	bl	disk_ioctl
	mov	r3, r0
	.loc 1 4058 63
	cmp	r3, #0
	ite	ne
	movne	r3, #1
	moveq	r3, #0
	uxtb	r3, r3
.L638:
	.loc 1 4059 1 discriminator 1
	mov	r0, r3
	add	sp, sp, #100
.LCFI142:
	@ sp needed
	ldr	pc, [sp], #4
.LFE50:
	.size	f_mkfs, .-f_mkfs
	.section	.text.f_gets,"ax",%progbits
	.align	1
	.global	f_gets
	.syntax unified
	.thumb
	.thumb_func
	.fpu fpv5-d16
	.type	f_gets, %function
f_gets:
.LFB51:
	.loc 1 4139 1
	@ args = 0, pretend = 0, frame = 32
	@ frame_needed = 0, uses_anonymous_args = 0
	push	{lr}
.LCFI143:
	sub	sp, sp, #36
.LCFI144:
	str	r0, [sp, #12]
	str	r1, [sp, #8]
	str	r2, [sp, #4]
	.loc 1 4140 9
	movs	r3, #0
	str	r3, [sp, #28]
	.loc 1 4141 15
	ldr	r3, [sp, #12]
	str	r3, [sp, #24]
	.loc 1 4145 11
	b	.L647
.L650:
	.loc 1 4190 9
	add	r3, sp, #16
	add	r1, sp, #20
	movs	r2, #1
	ldr	r0, [sp, #4]
	bl	f_read
	.loc 1 4191 16
	ldr	r3, [sp, #16]
	.loc 1 4191 12
	cmp	r3, #1
	bne	.L654
	.loc 1 4192 11
	ldrb	r3, [sp, #20]
	strb	r3, [sp, #23]
	.loc 1 4195 11
	ldr	r3, [sp, #24]
	adds	r2, r3, #1
	str	r2, [sp, #24]
	.loc 1 4195 14
	ldrb	r2, [sp, #23]
	strb	r2, [r3]
	.loc 1 4196 10
	ldr	r3, [sp, #28]
	adds	r3, r3, #1
	str	r3, [sp, #28]
	.loc 1 4197 12
	ldrb	r3, [sp, #23]	@ zero_extendqisi2
	cmp	r3, #10
	beq	.L655
.L647:
	.loc 1 4145 20
	ldr	r3, [sp, #8]
	subs	r3, r3, #1
	.loc 1 4145 11
	ldr	r2, [sp, #28]
	cmp	r2, r3
	blt	.L650
	b	.L649
.L654:
	.loc 1 4191 9
	nop
	b	.L649
.L655:
	.loc 1 4197 9
	nop
.L649:
	.loc 1 4199 8
	ldr	r3, [sp, #24]
	movs	r2, #0
	strb	r2, [r3]
	.loc 1 4200 21
	ldr	r3, [sp, #28]
	cmp	r3, #0
	beq	.L651
	.loc 1 4200 21 is_stmt 0 discriminator 1
	ldr	r3, [sp, #12]
	b	.L653
.L651:
	.loc 1 4200 21 discriminator 2
	movs	r3, #0
.L653:
	.loc 1 4201 1 is_stmt 1
	mov	r0, r3
	add	sp, sp, #36
.LCFI145:
	@ sp needed
	ldr	pc, [sp], #4
.LFE51:
	.size	f_gets, .-f_gets
	.section	.text.putc_bfd,"ax",%progbits
	.align	1
	.syntax unified
	.thumb
	.thumb_func
	.fpu fpv5-d16
	.type	putc_bfd, %function
putc_bfd:
.LFB52:
	.loc 1 4220 1
	@ args = 0, pretend = 0, frame = 16
	@ frame_needed = 0, uses_anonymous_args = 0
	push	{lr}
.LCFI146:
	sub	sp, sp, #20
.LCFI147:
	str	r0, [sp, #4]
	mov	r3, r1
	strb	r3, [sp, #3]
	.loc 1 4227 7
	ldr	r3, [sp, #4]
	ldr	r3, [r3, #4]
	str	r3, [sp, #12]
	.loc 1 4228 8
	ldr	r3, [sp, #12]
	cmp	r3, #0
	blt	.L662
	.loc 1 4257 14
	ldr	r3, [sp, #12]
	adds	r2, r3, #1
	str	r2, [sp, #12]
	.loc 1 4257 18
	ldr	r2, [sp, #4]
	add	r3, r3, r2
	ldrb	r2, [sp, #3]
	strb	r2, [r3, #12]
	.loc 1 4260 8
	ldr	r3, [sp, #12]
	cmp	r3, #60
	ble	.L659
	.loc 1 4261 9
	ldr	r3, [sp, #4]
	ldr	r0, [r3]
	.loc 1 4261 27
	ldr	r3, [sp, #4]
	add	r1, r3, #12
	.loc 1 4261 9
	ldr	r2, [sp, #12]
	add	r3, sp, #8
	bl	f_write
	.loc 1 4262 17
	ldr	r2, [sp, #8]
	.loc 1 4262 20
	ldr	r3, [sp, #12]
	.loc 1 4262 33
	cmp	r2, r3
	bne	.L660
	.loc 1 4262 33 is_stmt 0 discriminator 1
	movs	r3, #0
	b	.L661
.L660:
	.loc 1 4262 33 discriminator 2
	mov	r3, #-1
.L661:
	.loc 1 4262 11 is_stmt 1 discriminator 4
	str	r3, [sp, #12]
.L659:
	.loc 1 4264 13
	ldr	r3, [sp, #4]
	ldr	r2, [sp, #12]
	str	r2, [r3, #4]
	.loc 1 4265 7
	ldr	r3, [sp, #4]
	ldr	r3, [r3, #8]
	.loc 1 4265 13
	adds	r2, r3, #1
	ldr	r3, [sp, #4]
	str	r2, [r3, #8]
	b	.L656
.L662:
	.loc 1 4228 16
	nop
.L656:
	.loc 1 4266 1
	add	sp, sp, #20
.LCFI148:
	@ sp needed
	ldr	pc, [sp], #4
.LFE52:
	.size	putc_bfd, .-putc_bfd
	.section	.text.f_putc,"ax",%progbits
	.align	1
	.global	f_putc
	.syntax unified
	.thumb
	.thumb_func
	.fpu fpv5-d16
	.type	f_putc, %function
f_putc:
.LFB53:
	.loc 1 4272 1
	@ args = 0, pretend = 0, frame = 88
	@ frame_needed = 0, uses_anonymous_args = 0
	push	{r4, lr}
.LCFI149:
	sub	sp, sp, #88
.LCFI150:
	mov	r3, r0
	str	r1, [sp]
	strb	r3, [sp, #7]
	.loc 1 4276 11
	ldr	r3, [sp]
	str	r3, [sp, #12]
	.loc 1 4277 22
	movs	r3, #0
	str	r3, [sp, #16]
	.loc 1 4277 17
	ldr	r3, [sp, #16]
	.loc 1 4277 13
	str	r3, [sp, #20]
	.loc 1 4279 5
	ldrb	r2, [sp, #7]	@ zero_extendqisi2
	add	r3, sp, #12
	mov	r1, r2
	mov	r0, r3
	bl	putc_bfd
	.loc 1 4281 14
	ldr	r3, [sp, #16]
	.loc 1 4281 8
	cmp	r3, #0
	blt	.L664
	.loc 1 4282 12
	ldr	r0, [sp, #12]
	.loc 1 4282 43
	ldr	r3, [sp, #16]
	.loc 1 4282 12
	mov	r4, r3
	add	r2, sp, #8
	add	r3, sp, #12
	add	r1, r3, #12
	mov	r3, r2
	mov	r2, r4
	bl	f_write
	mov	r3, r0
	.loc 1 4282 9
	cmp	r3, #0
	bne	.L664
	.loc 1 4283 20
	ldr	r3, [sp, #16]
	.loc 1 4283 25
	ldr	r2, [sp, #8]
	.loc 1 4283 9
	cmp	r3, r2
	bne	.L664
	.loc 1 4283 41 discriminator 1
	ldr	r3, [sp, #20]
	b	.L666
.L664:
	.loc 1 4284 12
	mov	r3, #-1
.L666:
	.loc 1 4285 1 discriminator 1
	mov	r0, r3
	add	sp, sp, #88
.LCFI151:
	@ sp needed
	pop	{r4, pc}
.LFE53:
	.size	f_putc, .-f_putc
	.section	.text.f_puts,"ax",%progbits
	.align	1
	.global	f_puts
	.syntax unified
	.thumb
	.thumb_func
	.fpu fpv5-d16
	.type	f_puts, %function
f_puts:
.LFB54:
	.loc 1 4295 1
	@ args = 0, pretend = 0, frame = 88
	@ frame_needed = 0, uses_anonymous_args = 0
	push	{r4, lr}
.LCFI152:
	sub	sp, sp, #88
.LCFI153:
	str	r0, [sp, #4]
	str	r1, [sp]
	.loc 1 4299 11
	ldr	r3, [sp]
	str	r3, [sp, #12]
	.loc 1 4300 22
	movs	r3, #0
	str	r3, [sp, #16]
	.loc 1 4300 17
	ldr	r3, [sp, #16]
	.loc 1 4300 13
	str	r3, [sp, #20]
	.loc 1 4302 11
	b	.L668
.L669:
	.loc 1 4303 27
	ldr	r3, [sp, #4]
	adds	r2, r3, #1
	str	r2, [sp, #4]
	.loc 1 4303 9
	ldrb	r2, [r3]	@ zero_extendqisi2
	add	r3, sp, #12
	mov	r1, r2
	mov	r0, r3
	bl	putc_bfd
.L668:
	.loc 1 4302 12
	ldr	r3, [sp, #4]
	ldrb	r3, [r3]	@ zero_extendqisi2
	.loc 1 4302 11
	cmp	r3, #0
	bne	.L669
	.loc 1 4305 14
	ldr	r3, [sp, #16]
	.loc 1 4305 8
	cmp	r3, #0
	blt	.L670
	.loc 1 4306 12
	ldr	r0, [sp, #12]
	.loc 1 4306 43
	ldr	r3, [sp, #16]
	.loc 1 4306 12
	mov	r4, r3
	add	r2, sp, #8
	add	r3, sp, #12
	add	r1, r3, #12
	mov	r3, r2
	mov	r2, r4
	bl	f_write
	mov	r3, r0
	.loc 1 4306 9
	cmp	r3, #0
	bne	.L670
	.loc 1 4307 20
	ldr	r3, [sp, #16]
	.loc 1 4307 25
	ldr	r2, [sp, #8]
	.loc 1 4307 9
	cmp	r3, r2
	bne	.L670
	.loc 1 4307 41 discriminator 1
	ldr	r3, [sp, #20]
	b	.L672
.L670:
	.loc 1 4308 12
	mov	r3, #-1
.L672:
	.loc 1 4309 1 discriminator 1
	mov	r0, r3
	add	sp, sp, #88
.LCFI154:
	@ sp needed
	pop	{r4, pc}
.LFE54:
	.size	f_puts, .-f_puts
	.section	.text.f_printf,"ax",%progbits
	.align	1
	.global	f_printf
	.syntax unified
	.thumb
	.thumb_func
	.fpu fpv5-d16
	.type	f_printf, %function
f_printf:
.LFB55:
	.loc 1 4320 1
	@ args = 4, pretend = 12, frame = 136
	@ frame_needed = 0, uses_anonymous_args = 1
	push	{r1, r2, r3}
.LCFI155:
	push	{r4, lr}
.LCFI156:
	sub	sp, sp, #140
.LCFI157:
	str	r0, [sp, #4]
	.loc 1 4328 11
	ldr	r3, [sp, #4]
	str	r3, [sp, #8]
	.loc 1 4329 22
	movs	r3, #0
	str	r3, [sp, #12]
	.loc 1 4329 17
	ldr	r3, [sp, #12]
	.loc 1 4329 13
	str	r3, [sp, #16]
	.loc 1 4331 5
	add	r3, sp, #152
	str	r3, [sp, #104]
.L724:
	.loc 1 4334 17
	ldr	r3, [sp, #148]
	adds	r2, r3, #1
	str	r2, [sp, #148]
	.loc 1 4334 11
	ldrb	r3, [r3]
	strb	r3, [sp, #115]
	.loc 1 4335 12
	ldrb	r3, [sp, #115]	@ zero_extendqisi2
	cmp	r3, #0
	beq	.L728
	.loc 1 4336 12
	ldrb	r3, [sp, #115]	@ zero_extendqisi2
	cmp	r3, #37
	beq	.L676
	.loc 1 4337 13
	ldrb	r2, [sp, #115]	@ zero_extendqisi2
	add	r3, sp, #8
	mov	r1, r2
	mov	r0, r3
	bl	putc_bfd
	.loc 1 4338 13
	b	.L677
.L676:
	.loc 1 4340 15
	movs	r3, #0
	strb	r3, [sp, #135]
	.loc 1 4340 11
	movs	r3, #0
	str	r3, [sp, #120]
	.loc 1 4341 17
	ldr	r3, [sp, #148]
	adds	r2, r3, #1
	str	r2, [sp, #148]
	.loc 1 4341 11
	ldrb	r3, [r3]
	strb	r3, [sp, #115]
	.loc 1 4342 12
	ldrb	r3, [sp, #115]	@ zero_extendqisi2
	cmp	r3, #48
	bne	.L678
	.loc 1 4343 15
	movs	r3, #1
	strb	r3, [sp, #135]
	.loc 1 4343 28
	ldr	r3, [sp, #148]
	adds	r2, r3, #1
	str	r2, [sp, #148]
	.loc 1 4343 22
	ldrb	r3, [r3]
	strb	r3, [sp, #115]
	b	.L680
.L678:
	.loc 1 4345 16
	ldrb	r3, [sp, #115]	@ zero_extendqisi2
	cmp	r3, #45
	bne	.L680
	.loc 1 4346 19
	movs	r3, #2
	strb	r3, [sp, #135]
	.loc 1 4346 32
	ldr	r3, [sp, #148]
	adds	r2, r3, #1
	str	r2, [sp, #148]
	.loc 1 4346 26
	ldrb	r3, [r3]
	strb	r3, [sp, #115]
	.loc 1 4349 15
	b	.L680
.L682:
	.loc 1 4350 19
	ldr	r2, [sp, #120]
	mov	r3, r2
	lsls	r3, r3, #2
	add	r3, r3, r2
	lsls	r3, r3, #1
	mov	r2, r3
	.loc 1 4350 24
	ldrb	r3, [sp, #115]	@ zero_extendqisi2
	add	r3, r3, r2
	.loc 1 4350 15
	subs	r3, r3, #48
	str	r3, [sp, #120]
	.loc 1 4351 21
	ldr	r3, [sp, #148]
	adds	r2, r3, #1
	str	r2, [sp, #148]
	.loc 1 4351 15
	ldrb	r3, [r3]
	strb	r3, [sp, #115]
.L680:
	.loc 1 4349 15
	ldrb	r3, [sp, #115]	@ zero_extendqisi2
	cmp	r3, #47
	bls	.L681
	.loc 1 4349 16 discriminator 1
	ldrb	r3, [sp, #115]	@ zero_extendqisi2
	cmp	r3, #57
	bls	.L682
.L681:
	.loc 1 4353 12
	ldrb	r3, [sp, #115]	@ zero_extendqisi2
	cmp	r3, #108
	beq	.L683
	.loc 1 4353 22 discriminator 1
	ldrb	r3, [sp, #115]	@ zero_extendqisi2
	cmp	r3, #76
	bne	.L684
.L683:
	.loc 1 4354 15
	ldrb	r3, [sp, #135]
	orr	r3, r3, #4
	strb	r3, [sp, #135]
	.loc 1 4354 29
	ldr	r3, [sp, #148]
	adds	r2, r3, #1
	str	r2, [sp, #148]
	.loc 1 4354 23
	ldrb	r3, [r3]
	strb	r3, [sp, #115]
.L684:
	.loc 1 4356 12
	ldrb	r3, [sp, #115]	@ zero_extendqisi2
	cmp	r3, #0
	beq	.L729
	.loc 1 4357 11
	ldrb	r3, [sp, #115]
	strb	r3, [sp, #114]
	.loc 1 4358 12
	ldrb	r3, [sp, #114]	@ zero_extendqisi2
	cmp	r3, #96
	bls	.L686
	.loc 1 4358 13 discriminator 1
	ldrb	r3, [sp, #114]	@ zero_extendqisi2
	cmp	r3, #122
	bhi	.L686
	.loc 1 4358 27 discriminator 2
	ldrb	r3, [sp, #114]
	subs	r3, r3, #32
	strb	r3, [sp, #114]
.L686:
	.loc 1 4359 9
	ldrb	r3, [sp, #114]	@ zero_extendqisi2
	subs	r3, r3, #66
	cmp	r3, #22
	bhi	.L687
	adr	r2, .L689
	ldr	pc, [r2, r3, lsl #2]
	.p2align 2
.L689:
	.word	.L694+1
	.word	.L693+1
	.word	.L690+1
	.word	.L687+1
	.word	.L687+1
	.word	.L687+1
	.word	.L687+1
	.word	.L687+1
	.word	.L687+1
	.word	.L687+1
	.word	.L687+1
	.word	.L687+1
	.word	.L687+1
	.word	.L692+1
	.word	.L687+1
	.word	.L687+1
	.word	.L687+1
	.word	.L691+1
	.word	.L687+1
	.word	.L690+1
	.word	.L687+1
	.word	.L687+1
	.word	.L688+1
	.p2align 1
.L691:
	.loc 1 4361 15
	ldr	r3, [sp, #104]
	adds	r2, r3, #4
	str	r2, [sp, #104]
	ldr	r3, [r3]
	str	r3, [sp, #108]
	.loc 1 4362 20
	movs	r3, #0
	str	r3, [sp, #124]
	.loc 1 4362 13
	b	.L695
.L696:
	.loc 1 4362 32 discriminator 3
	ldr	r3, [sp, #124]
	adds	r3, r3, #1
	str	r3, [sp, #124]
.L695:
	.loc 1 4362 26 discriminator 1
	ldr	r2, [sp, #108]
	ldr	r3, [sp, #124]
	add	r3, r3, r2
	ldrb	r3, [r3]	@ zero_extendqisi2
	.loc 1 4362 13 discriminator 1
	cmp	r3, #0
	bne	.L696
	.loc 1 4363 21
	ldrb	r3, [sp, #135]	@ zero_extendqisi2
	and	r3, r3, #2
	.loc 1 4363 16
	cmp	r3, #0
	bne	.L700
	.loc 1 4364 23
	b	.L698
.L699:
	.loc 1 4364 33 discriminator 2
	add	r3, sp, #8
	movs	r1, #32
	mov	r0, r3
	bl	putc_bfd
.L698:
	.loc 1 4364 25 discriminator 1
	ldr	r3, [sp, #124]
	adds	r2, r3, #1
	str	r2, [sp, #124]
	.loc 1 4364 23 discriminator 1
	ldr	r2, [sp, #120]
	cmp	r2, r3
	bhi	.L699
	.loc 1 4366 19
	b	.L700
.L701:
	.loc 1 4366 40 discriminator 2
	ldr	r3, [sp, #108]
	adds	r2, r3, #1
	str	r2, [sp, #108]
	.loc 1 4366 24 discriminator 2
	ldrb	r2, [r3]	@ zero_extendqisi2
	add	r3, sp, #8
	mov	r1, r2
	mov	r0, r3
	bl	putc_bfd
.L700:
	.loc 1 4366 20 discriminator 1
	ldr	r3, [sp, #108]
	ldrb	r3, [r3]	@ zero_extendqisi2
	.loc 1 4366 19 discriminator 1
	cmp	r3, #0
	bne	.L701
	.loc 1 4367 19
	b	.L702
.L703:
	.loc 1 4367 29 discriminator 2
	add	r3, sp, #8
	movs	r1, #32
	mov	r0, r3
	bl	putc_bfd
.L702:
	.loc 1 4367 21 discriminator 1
	ldr	r3, [sp, #124]
	adds	r2, r3, #1
	str	r2, [sp, #124]
	.loc 1 4367 19 discriminator 1
	ldr	r2, [sp, #120]
	cmp	r2, r3
	bhi	.L703
	.loc 1 4368 13
	b	.L677
.L693:
	.loc 1 4370 46
	ldr	r3, [sp, #104]
	adds	r2, r3, #4
	str	r2, [sp, #104]
	ldr	r3, [r3]
	.loc 1 4370 13
	uxtb	r2, r3
	add	r3, sp, #8
	mov	r1, r2
	mov	r0, r3
	bl	putc_bfd
	b	.L677
.L694:
	.loc 1 4372 15
	movs	r3, #2
	strb	r3, [sp, #134]
	.loc 1 4372 13
	b	.L704
.L692:
	.loc 1 4374 15
	movs	r3, #8
	strb	r3, [sp, #134]
	.loc 1 4374 13
	b	.L704
.L690:
	.loc 1 4377 15
	movs	r3, #10
	strb	r3, [sp, #134]
	.loc 1 4377 13
	b	.L704
.L688:
	.loc 1 4379 15
	movs	r3, #16
	strb	r3, [sp, #134]
	.loc 1 4379 13
	b	.L704
.L687:
	.loc 1 4381 13
	ldrb	r2, [sp, #115]	@ zero_extendqisi2
	add	r3, sp, #8
	mov	r1, r2
	mov	r0, r3
	bl	putc_bfd
	b	.L677
.L704:
	.loc 1 4385 16
	ldrb	r3, [sp, #135]	@ zero_extendqisi2
	and	r3, r3, #4
	.loc 1 4385 48
	cmp	r3, #0
	beq	.L705
	.loc 1 4385 42
	ldr	r3, [sp, #104]
	adds	r2, r3, #4
	str	r2, [sp, #104]
	ldr	r3, [r3]
	b	.L706
.L705:
	.loc 1 4385 94 discriminator 2
	ldrb	r3, [sp, #114]	@ zero_extendqisi2
	cmp	r3, #68
	bne	.L707
	.loc 1 4385 89
	ldr	r3, [sp, #104]
	adds	r2, r3, #4
	str	r2, [sp, #104]
	ldr	r3, [r3]
	b	.L706
.L707:
	.loc 1 4385 94
	ldr	r3, [sp, #104]
	adds	r2, r3, #4
	str	r2, [sp, #104]
	ldr	r3, [r3]
.L706:
	.loc 1 4385 11 discriminator 8
	str	r3, [sp, #116]
	.loc 1 4386 12 discriminator 8
	ldrb	r3, [sp, #114]	@ zero_extendqisi2
	cmp	r3, #68
	bne	.L709
	.loc 1 4386 22 discriminator 1
	ldr	r3, [sp, #116]
	cmp	r3, #0
	bge	.L709
	.loc 1 4387 15
	ldr	r3, [sp, #116]
	rsbs	r3, r3, #0
	str	r3, [sp, #116]
	.loc 1 4388 15
	ldrb	r3, [sp, #135]
	orr	r3, r3, #8
	strb	r3, [sp, #135]
.L709:
	.loc 1 4390 11
	movs	r3, #0
	str	r3, [sp, #128]
.L714:
	.loc 1 4392 27
	ldrb	r2, [sp, #134]	@ zero_extendqisi2
	ldr	r3, [sp, #116]
	udiv	r1, r3, r2
	mul	r2, r1, r2
	subs	r3, r3, r2
	.loc 1 4392 15
	strb	r3, [sp, #114]
	.loc 1 4392 35
	ldrb	r3, [sp, #134]	@ zero_extendqisi2
	ldr	r2, [sp, #116]
	udiv	r3, r2, r3
	str	r3, [sp, #116]
	.loc 1 4393 16
	ldrb	r3, [sp, #114]	@ zero_extendqisi2
	cmp	r3, #9
	bls	.L710
	.loc 1 4393 26 discriminator 1
	ldrb	r3, [sp, #115]	@ zero_extendqisi2
	cmp	r3, #120
	bne	.L711
	.loc 1 4393 26 is_stmt 0 discriminator 2
	movs	r2, #39
	b	.L712
.L711:
	.loc 1 4393 26 discriminator 3
	movs	r2, #7
.L712:
	.loc 1 4393 26 discriminator 5
	ldrb	r3, [sp, #114]
	add	r3, r3, r2
	strb	r3, [sp, #114]
.L710:
	.loc 1 4394 16 is_stmt 1
	ldr	r3, [sp, #128]
	adds	r2, r3, #1
	str	r2, [sp, #128]
	.loc 1 4394 24
	ldrb	r2, [sp, #114]
	adds	r2, r2, #48
	uxtb	r2, r2
	.loc 1 4394 20
	add	r1, sp, #136
	add	r3, r3, r1
	strb	r2, [r3, #-52]
	.loc 1 4395 9
	ldr	r3, [sp, #116]
	cmp	r3, #0
	beq	.L713
	.loc 1 4395 20 discriminator 1
	ldr	r3, [sp, #128]
	cmp	r3, #15
	bls	.L714
.L713:
	.loc 1 4396 15
	ldrb	r3, [sp, #135]	@ zero_extendqisi2
	and	r3, r3, #8
	.loc 1 4396 12
	cmp	r3, #0
	beq	.L715
	.loc 1 4396 23 discriminator 1
	ldr	r3, [sp, #128]
	adds	r2, r3, #1
	str	r2, [sp, #128]
	.loc 1 4396 27 discriminator 1
	add	r2, sp, #136
	add	r3, r3, r2
	movs	r2, #45
	strb	r2, [r3, #-52]
.L715:
	.loc 1 4397 11
	ldr	r3, [sp, #128]
	str	r3, [sp, #124]
	.loc 1 4397 23
	ldrb	r3, [sp, #135]	@ zero_extendqisi2
	and	r3, r3, #1
	.loc 1 4397 18
	cmp	r3, #0
	beq	.L716
	.loc 1 4397 18 is_stmt 0 discriminator 1
	movs	r3, #48
	b	.L717
.L716:
	.loc 1 4397 18 discriminator 2
	movs	r3, #32
.L717:
	.loc 1 4397 18 discriminator 4
	strb	r3, [sp, #114]
	.loc 1 4398 15 is_stmt 1 discriminator 4
	b	.L718
.L720:
	.loc 1 4398 37 discriminator 3
	ldrb	r2, [sp, #114]	@ zero_extendqisi2
	add	r3, sp, #8
	mov	r1, r2
	mov	r0, r3
	bl	putc_bfd
.L718:
	.loc 1 4398 20 discriminator 1
	ldrb	r3, [sp, #135]	@ zero_extendqisi2
	and	r3, r3, #2
	.loc 1 4398 15 discriminator 1
	cmp	r3, #0
	bne	.L721
	.loc 1 4398 29 discriminator 2
	ldr	r3, [sp, #124]
	adds	r2, r3, #1
	str	r2, [sp, #124]
	.loc 1 4398 25 discriminator 2
	ldr	r2, [sp, #120]
	cmp	r2, r3
	bhi	.L720
.L721:
	.loc 1 4399 12 discriminator 1
	ldr	r3, [sp, #128]
	subs	r3, r3, #1
	str	r3, [sp, #128]
	add	r2, sp, #84
	ldr	r3, [sp, #128]
	add	r3, r3, r2
	ldrb	r2, [r3]	@ zero_extendqisi2
	add	r3, sp, #8
	mov	r1, r2
	mov	r0, r3
	bl	putc_bfd
	.loc 1 4399 9 discriminator 1
	ldr	r3, [sp, #128]
	cmp	r3, #0
	bne	.L721
	.loc 1 4400 15
	b	.L722
.L723:
	.loc 1 4400 25 discriminator 2
	ldrb	r2, [sp, #114]	@ zero_extendqisi2
	add	r3, sp, #8
	mov	r1, r2
	mov	r0, r3
	bl	putc_bfd
.L722:
	.loc 1 4400 17 discriminator 1
	ldr	r3, [sp, #124]
	adds	r2, r3, #1
	str	r2, [sp, #124]
	.loc 1 4400 15 discriminator 1
	ldr	r2, [sp, #120]
	cmp	r2, r3
	bhi	.L723
.L677:
	.loc 1 4334 11
	b	.L724
.L728:
	.loc 1 4335 9
	nop
	b	.L675
.L729:
	.loc 1 4356 9
	nop
.L675:
	.loc 1 4405 14
	ldr	r3, [sp, #12]
	.loc 1 4405 8
	cmp	r3, #0
	blt	.L725
	.loc 1 4406 12
	ldr	r0, [sp, #8]
	.loc 1 4406 43
	ldr	r3, [sp, #12]
	.loc 1 4406 12
	mov	r4, r3
	add	r2, sp, #100
	add	r3, sp, #8
	add	r1, r3, #12
	mov	r3, r2
	mov	r2, r4
	bl	f_write
	mov	r3, r0
	.loc 1 4406 9
	cmp	r3, #0
	bne	.L725
	.loc 1 4407 20
	ldr	r3, [sp, #12]
	.loc 1 4407 25
	ldr	r2, [sp, #100]
	.loc 1 4407 9
	cmp	r3, r2
	bne	.L725
	.loc 1 4407 41 discriminator 1
	ldr	r3, [sp, #16]
	b	.L727
.L725:
	.loc 1 4408 12
	mov	r3, #-1
.L727:
	.loc 1 4409 1 discriminator 1
	mov	r0, r3
	add	sp, sp, #140
.LCFI158:
	@ sp needed
	pop	{r4, lr}
.LCFI159:
	add	sp, sp, #12
.LCFI160:
	bx	lr
.LFE55:
	.size	f_printf, .-f_printf
	.section	.rodata.vst.1,"a"
	.align	2
	.type	vst.1, %object
	.size	vst.1, 22
vst.1:
	.short	1024
	.short	512
	.short	256
	.short	128
	.short	64
	.short	32
	.short	16
	.short	8
	.short	4
	.short	2
	.short	0
	.section	.rodata.cst.0,"a"
	.align	2
	.type	cst.0, %object
	.size	cst.0, 22
cst.0:
	.short	-32768
	.short	16384
	.short	8192
	.short	4096
	.short	2048
	.short	16384
	.short	8192
	.short	4096
	.short	2048
	.short	1024
	.short	512
	.section	.debug_frame,"",%progbits
.Lframe0:
	.4byte	.LECIE0-.LSCIE0
.LSCIE0:
	.4byte	0xffffffff
	.byte	0x3
	.ascii	"\000"
	.uleb128 0x1
	.sleb128 -4
	.uleb128 0xe
	.byte	0xc
	.uleb128 0xd
	.uleb128 0
	.align	2
.LECIE0:
.LSFDE0:
	.4byte	.LEFDE0-.LASFDE0
.LASFDE0:
	.4byte	.Lframe0
	.4byte	.LFB0
	.4byte	.LFE0-.LFB0
	.byte	0x4
	.4byte	.LCFI0-.LFB0
	.byte	0xe
	.uleb128 0x18
	.byte	0x4
	.4byte	.LCFI1-.LCFI0
	.byte	0xe
	.uleb128 0
	.align	2
.LEFDE0:
.LSFDE2:
	.4byte	.LEFDE2-.LASFDE2
.LASFDE2:
	.4byte	.Lframe0
	.4byte	.LFB1
	.4byte	.LFE1-.LFB1
	.byte	0x4
	.4byte	.LCFI2-.LFB1
	.byte	0xe
	.uleb128 0x18
	.byte	0x4
	.4byte	.LCFI3-.LCFI2
	.byte	0xe
	.uleb128 0
	.align	2
.LEFDE2:
.LSFDE4:
	.4byte	.LEFDE4-.LASFDE4
.LASFDE4:
	.4byte	.Lframe0
	.4byte	.LFB2
	.4byte	.LFE2-.LFB2
	.byte	0x4
	.4byte	.LCFI4-.LFB2
	.byte	0xe
	.uleb128 0x20
	.byte	0x4
	.4byte	.LCFI5-.LCFI4
	.byte	0xe
	.uleb128 0
	.align	2
.LEFDE4:
.LSFDE6:
	.4byte	.LEFDE6-.LASFDE6
.LASFDE6:
	.4byte	.Lframe0
	.4byte	.LFB3
	.4byte	.LFE3-.LFB3
	.byte	0x4
	.4byte	.LCFI6-.LFB3
	.byte	0xe
	.uleb128 0x8
	.byte	0x4
	.4byte	.LCFI7-.LCFI6
	.byte	0xe
	.uleb128 0
	.align	2
.LEFDE6:
.LSFDE8:
	.4byte	.LEFDE8-.LASFDE8
.LASFDE8:
	.4byte	.Lframe0
	.4byte	.LFB4
	.4byte	.LFE4-.LFB4
	.byte	0x4
	.4byte	.LCFI8-.LFB4
	.byte	0xe
	.uleb128 0x4
	.byte	0x8e
	.uleb128 0x1
	.byte	0x4
	.4byte	.LCFI9-.LCFI8
	.byte	0xe
	.uleb128 0x20
	.byte	0x4
	.4byte	.LCFI10-.LCFI9
	.byte	0xe
	.uleb128 0x4
	.align	2
.LEFDE8:
.LSFDE10:
	.4byte	.LEFDE10-.LASFDE10
.LASFDE10:
	.4byte	.Lframe0
	.4byte	.LFB5
	.4byte	.LFE5-.LFB5
	.byte	0x4
	.4byte	.LCFI11-.LFB5
	.byte	0xe
	.uleb128 0x4
	.byte	0x8e
	.uleb128 0x1
	.byte	0x4
	.4byte	.LCFI12-.LCFI11
	.byte	0xe
	.uleb128 0x18
	.byte	0x4
	.4byte	.LCFI13-.LCFI12
	.byte	0xe
	.uleb128 0x4
	.align	2
.LEFDE10:
.LSFDE12:
	.4byte	.LEFDE12-.LASFDE12
.LASFDE12:
	.4byte	.Lframe0
	.4byte	.LFB6
	.4byte	.LFE6-.LFB6
	.byte	0x4
	.4byte	.LCFI14-.LFB6
	.byte	0xe
	.uleb128 0x4
	.byte	0x8e
	.uleb128 0x1
	.byte	0x4
	.4byte	.LCFI15-.LCFI14
	.byte	0xe
	.uleb128 0x18
	.byte	0x4
	.4byte	.LCFI16-.LCFI15
	.byte	0xe
	.uleb128 0x4
	.align	2
.LEFDE12:
.LSFDE14:
	.4byte	.LEFDE14-.LASFDE14
.LASFDE14:
	.4byte	.Lframe0
	.4byte	.LFB7
	.4byte	.LFE7-.LFB7
	.byte	0x4
	.4byte	.LCFI17-.LFB7
	.byte	0xe
	.uleb128 0x8
	.byte	0x4
	.4byte	.LCFI18-.LCFI17
	.byte	0xe
	.uleb128 0
	.align	2
.LEFDE14:
.LSFDE16:
	.4byte	.LEFDE16-.LASFDE16
.LASFDE16:
	.4byte	.Lframe0
	.4byte	.LFB8
	.4byte	.LFE8-.LFB8
	.byte	0x4
	.4byte	.LCFI19-.LFB8
	.byte	0xe
	.uleb128 0x4
	.byte	0x8e
	.uleb128 0x1
	.byte	0x4
	.4byte	.LCFI20-.LCFI19
	.byte	0xe
	.uleb128 0x20
	.byte	0x4
	.4byte	.LCFI21-.LCFI20
	.byte	0xe
	.uleb128 0x4
	.align	2
.LEFDE16:
.LSFDE18:
	.4byte	.LEFDE18-.LASFDE18
.LASFDE18:
	.4byte	.Lframe0
	.4byte	.LFB9
	.4byte	.LFE9-.LFB9
	.byte	0x4
	.4byte	.LCFI22-.LFB9
	.byte	0xe
	.uleb128 0x4
	.byte	0x8e
	.uleb128 0x1
	.byte	0x4
	.4byte	.LCFI23-.LCFI22
	.byte	0xe
	.uleb128 0x28
	.byte	0x4
	.4byte	.LCFI24-.LCFI23
	.byte	0xe
	.uleb128 0x4
	.align	2
.LEFDE18:
.LSFDE20:
	.4byte	.LEFDE20-.LASFDE20
.LASFDE20:
	.4byte	.Lframe0
	.4byte	.LFB10
	.4byte	.LFE10-.LFB10
	.byte	0x4
	.4byte	.LCFI25-.LFB10
	.byte	0xe
	.uleb128 0x4
	.byte	0x8e
	.uleb128 0x1
	.byte	0x4
	.4byte	.LCFI26-.LCFI25
	.byte	0xe
	.uleb128 0x18
	.byte	0x4
	.4byte	.LCFI27-.LCFI26
	.byte	0xe
	.uleb128 0x4
	.align	2
.LEFDE20:
.LSFDE22:
	.4byte	.LEFDE22-.LASFDE22
.LASFDE22:
	.4byte	.Lframe0
	.4byte	.LFB11
	.4byte	.LFE11-.LFB11
	.byte	0x4
	.4byte	.LCFI28-.LFB11
	.byte	0xe
	.uleb128 0x4
	.byte	0x8e
	.uleb128 0x1
	.byte	0x4
	.4byte	.LCFI29-.LCFI28
	.byte	0xe
	.uleb128 0x20
	.byte	0x4
	.4byte	.LCFI30-.LCFI29
	.byte	0xe
	.uleb128 0x4
	.align	2
.LEFDE22:
.LSFDE24:
	.4byte	.LEFDE24-.LASFDE24
.LASFDE24:
	.4byte	.Lframe0
	.4byte	.LFB12
	.4byte	.LFE12-.LFB12
	.byte	0x4
	.4byte	.LCFI31-.LFB12
	.byte	0xe
	.uleb128 0x18
	.byte	0x4
	.4byte	.LCFI32-.LCFI31
	.byte	0xe
	.uleb128 0
	.align	2
.LEFDE24:
.LSFDE26:
	.4byte	.LEFDE26-.LASFDE26
.LASFDE26:
	.4byte	.Lframe0
	.4byte	.LFB13
	.4byte	.LFE13-.LFB13
	.byte	0x4
	.4byte	.LCFI33-.LFB13
	.byte	0xe
	.uleb128 0x4
	.byte	0x8e
	.uleb128 0x1
	.byte	0x4
	.4byte	.LCFI34-.LCFI33
	.byte	0xe
	.uleb128 0x20
	.byte	0x4
	.4byte	.LCFI35-.LCFI34
	.byte	0xe
	.uleb128 0x4
	.align	2
.LEFDE26:
.LSFDE28:
	.4byte	.LEFDE28-.LASFDE28
.LASFDE28:
	.4byte	.Lframe0
	.4byte	.LFB14
	.4byte	.LFE14-.LFB14
	.byte	0x4
	.4byte	.LCFI36-.LFB14
	.byte	0xe
	.uleb128 0x8
	.byte	0x84
	.uleb128 0x2
	.byte	0x8e
	.uleb128 0x1
	.byte	0x4
	.4byte	.LCFI37-.LCFI36
	.byte	0xe
	.uleb128 0x20
	.byte	0x4
	.4byte	.LCFI38-.LCFI37
	.byte	0xe
	.uleb128 0x8
	.align	2
.LEFDE28:
.LSFDE30:
	.4byte	.LEFDE30-.LASFDE30
.LASFDE30:
	.4byte	.Lframe0
	.4byte	.LFB15
	.4byte	.LFE15-.LFB15
	.byte	0x4
	.4byte	.LCFI39-.LFB15
	.byte	0xe
	.uleb128 0x4
	.byte	0x8e
	.uleb128 0x1
	.byte	0x4
	.4byte	.LCFI40-.LCFI39
	.byte	0xe
	.uleb128 0x18
	.byte	0x4
	.4byte	.LCFI41-.LCFI40
	.byte	0xe
	.uleb128 0x4
	.align	2
.LEFDE30:
.LSFDE32:
	.4byte	.LEFDE32-.LASFDE32
.LASFDE32:
	.4byte	.Lframe0
	.4byte	.LFB16
	.4byte	.LFE16-.LFB16
	.byte	0x4
	.4byte	.LCFI42-.LFB16
	.byte	0xe
	.uleb128 0x10
	.byte	0x4
	.4byte	.LCFI43-.LCFI42
	.byte	0xe
	.uleb128 0
	.align	2
.LEFDE32:
.LSFDE34:
	.4byte	.LEFDE34-.LASFDE34
.LASFDE34:
	.4byte	.Lframe0
	.4byte	.LFB17
	.4byte	.LFE17-.LFB17
	.byte	0x4
	.4byte	.LCFI44-.LFB17
	.byte	0xe
	.uleb128 0x8
	.byte	0x4
	.4byte	.LCFI45-.LCFI44
	.byte	0xe
	.uleb128 0
	.align	2
.LEFDE34:
.LSFDE36:
	.4byte	.LEFDE36-.LASFDE36
.LASFDE36:
	.4byte	.Lframe0
	.4byte	.LFB18
	.4byte	.LFE18-.LFB18
	.byte	0x4
	.4byte	.LCFI46-.LFB18
	.byte	0xe
	.uleb128 0x4
	.byte	0x8e
	.uleb128 0x1
	.byte	0x4
	.4byte	.LCFI47-.LCFI46
	.byte	0xe
	.uleb128 0x20
	.byte	0x4
	.4byte	.LCFI48-.LCFI47
	.byte	0xe
	.uleb128 0x4
	.align	2
.LEFDE36:
.LSFDE38:
	.4byte	.LEFDE38-.LASFDE38
.LASFDE38:
	.4byte	.Lframe0
	.4byte	.LFB19
	.4byte	.LFE19-.LFB19
	.byte	0x4
	.4byte	.LCFI49-.LFB19
	.byte	0xe
	.uleb128 0x4
	.byte	0x8e
	.uleb128 0x1
	.byte	0x4
	.4byte	.LCFI50-.LCFI49
	.byte	0xe
	.uleb128 0x20
	.byte	0x4
	.4byte	.LCFI51-.LCFI50
	.byte	0xe
	.uleb128 0x4
	.align	2
.LEFDE38:
.LSFDE40:
	.4byte	.LEFDE40-.LASFDE40
.LASFDE40:
	.4byte	.Lframe0
	.4byte	.LFB20
	.4byte	.LFE20-.LFB20
	.byte	0x4
	.4byte	.LCFI52-.LFB20
	.byte	0xe
	.uleb128 0x4
	.byte	0x8e
	.uleb128 0x1
	.byte	0x4
	.4byte	.LCFI53-.LCFI52
	.byte	0xe
	.uleb128 0x18
	.byte	0x4
	.4byte	.LCFI54-.LCFI53
	.byte	0xe
	.uleb128 0x4
	.align	2
.LEFDE40:
.LSFDE42:
	.4byte	.LEFDE42-.LASFDE42
.LASFDE42:
	.4byte	.Lframe0
	.4byte	.LFB21
	.4byte	.LFE21-.LFB21
	.byte	0x4
	.4byte	.LCFI55-.LFB21
	.byte	0xe
	.uleb128 0x4
	.byte	0x8e
	.uleb128 0x1
	.byte	0x4
	.4byte	.LCFI56-.LCFI55
	.byte	0xe
	.uleb128 0x18
	.byte	0x4
	.4byte	.LCFI57-.LCFI56
	.byte	0xe
	.uleb128 0x4
	.align	2
.LEFDE42:
.LSFDE44:
	.4byte	.LEFDE44-.LASFDE44
.LASFDE44:
	.4byte	.Lframe0
	.4byte	.LFB22
	.4byte	.LFE22-.LFB22
	.byte	0x4
	.4byte	.LCFI58-.LFB22
	.byte	0xe
	.uleb128 0x18
	.byte	0x4
	.4byte	.LCFI59-.LCFI58
	.byte	0xe
	.uleb128 0
	.align	2
.LEFDE44:
.LSFDE46:
	.4byte	.LEFDE46-.LASFDE46
.LASFDE46:
	.4byte	.Lframe0
	.4byte	.LFB23
	.4byte	.LFE23-.LFB23
	.byte	0x4
	.4byte	.LCFI60-.LFB23
	.byte	0xe
	.uleb128 0x4
	.byte	0x8e
	.uleb128 0x1
	.byte	0x4
	.4byte	.LCFI61-.LCFI60
	.byte	0xe
	.uleb128 0x28
	.byte	0x4
	.4byte	.LCFI62-.LCFI61
	.byte	0xe
	.uleb128 0x4
	.align	2
.LEFDE46:
.LSFDE48:
	.4byte	.LEFDE48-.LASFDE48
.LASFDE48:
	.4byte	.Lframe0
	.4byte	.LFB24
	.4byte	.LFE24-.LFB24
	.byte	0x4
	.4byte	.LCFI63-.LFB24
	.byte	0xe
	.uleb128 0x4
	.byte	0x8e
	.uleb128 0x1
	.byte	0x4
	.4byte	.LCFI64-.LCFI63
	.byte	0xe
	.uleb128 0x18
	.byte	0x4
	.4byte	.LCFI65-.LCFI64
	.byte	0xe
	.uleb128 0x4
	.align	2
.LEFDE48:
.LSFDE50:
	.4byte	.LEFDE50-.LASFDE50
.LASFDE50:
	.4byte	.Lframe0
	.4byte	.LFB25
	.4byte	.LFE25-.LFB25
	.byte	0x4
	.4byte	.LCFI66-.LFB25
	.byte	0xe
	.uleb128 0x18
	.byte	0x4
	.4byte	.LCFI67-.LCFI66
	.byte	0xe
	.uleb128 0
	.align	2
.LEFDE50:
.LSFDE52:
	.4byte	.LEFDE52-.LASFDE52
.LASFDE52:
	.4byte	.Lframe0
	.4byte	.LFB26
	.4byte	.LFE26-.LFB26
	.byte	0x4
	.4byte	.LCFI68-.LFB26
	.byte	0xe
	.uleb128 0x4
	.byte	0x8e
	.uleb128 0x1
	.byte	0x4
	.4byte	.LCFI69-.LCFI68
	.byte	0xe
	.uleb128 0x10
	.byte	0x4
	.4byte	.LCFI70-.LCFI69
	.byte	0xe
	.uleb128 0x4
	.align	2
.LEFDE52:
.LSFDE54:
	.4byte	.LEFDE54-.LASFDE54
.LASFDE54:
	.4byte	.Lframe0
	.4byte	.LFB27
	.4byte	.LFE27-.LFB27
	.byte	0x4
	.4byte	.LCFI71-.LFB27
	.byte	0xe
	.uleb128 0x4
	.byte	0x8e
	.uleb128 0x1
	.byte	0x4
	.4byte	.LCFI72-.LCFI71
	.byte	0xe
	.uleb128 0x60
	.byte	0x4
	.4byte	.LCFI73-.LCFI72
	.byte	0xe
	.uleb128 0x4
	.align	2
.LEFDE54:
.LSFDE56:
	.4byte	.LEFDE56-.LASFDE56
.LASFDE56:
	.4byte	.Lframe0
	.4byte	.LFB28
	.4byte	.LFE28-.LFB28
	.byte	0x4
	.4byte	.LCFI74-.LFB28
	.byte	0xe
	.uleb128 0x4
	.byte	0x8e
	.uleb128 0x1
	.byte	0x4
	.4byte	.LCFI75-.LCFI74
	.byte	0xe
	.uleb128 0x18
	.byte	0x4
	.4byte	.LCFI76-.LCFI75
	.byte	0xe
	.uleb128 0x4
	.align	2
.LEFDE56:
.LSFDE58:
	.4byte	.LEFDE58-.LASFDE58
.LASFDE58:
	.4byte	.Lframe0
	.4byte	.LFB29
	.4byte	.LFE29-.LFB29
	.byte	0x4
	.4byte	.LCFI77-.LFB29
	.byte	0xe
	.uleb128 0x4
	.byte	0x8e
	.uleb128 0x1
	.byte	0x4
	.4byte	.LCFI78-.LCFI77
	.byte	0xe
	.uleb128 0x28
	.byte	0x4
	.4byte	.LCFI79-.LCFI78
	.byte	0xe
	.uleb128 0x4
	.align	2
.LEFDE58:
.LSFDE60:
	.4byte	.LEFDE60-.LASFDE60
.LASFDE60:
	.4byte	.Lframe0
	.4byte	.LFB30
	.4byte	.LFE30-.LFB30
	.byte	0x4
	.4byte	.LCFI80-.LFB30
	.byte	0xe
	.uleb128 0x4
	.byte	0x8e
	.uleb128 0x1
	.byte	0x4
	.4byte	.LCFI81-.LCFI80
	.byte	0xe
	.uleb128 0x50
	.byte	0x4
	.4byte	.LCFI82-.LCFI81
	.byte	0xe
	.uleb128 0x4
	.align	2
.LEFDE60:
.LSFDE62:
	.4byte	.LEFDE62-.LASFDE62
.LASFDE62:
	.4byte	.Lframe0
	.4byte	.LFB31
	.4byte	.LFE31-.LFB31
	.byte	0x4
	.4byte	.LCFI83-.LFB31
	.byte	0xe
	.uleb128 0x4
	.byte	0x8e
	.uleb128 0x1
	.byte	0x4
	.4byte	.LCFI84-.LCFI83
	.byte	0xe
	.uleb128 0x38
	.byte	0x4
	.4byte	.LCFI85-.LCFI84
	.byte	0xe
	.uleb128 0x4
	.align	2
.LEFDE62:
.LSFDE64:
	.4byte	.LEFDE64-.LASFDE64
.LASFDE64:
	.4byte	.Lframe0
	.4byte	.LFB32
	.4byte	.LFE32-.LFB32
	.byte	0x4
	.4byte	.LCFI86-.LFB32
	.byte	0xe
	.uleb128 0x4
	.byte	0x8e
	.uleb128 0x1
	.byte	0x4
	.4byte	.LCFI87-.LCFI86
	.byte	0xe
	.uleb128 0x30
	.byte	0x4
	.4byte	.LCFI88-.LCFI87
	.byte	0xe
	.uleb128 0x4
	.align	2
.LEFDE64:
.LSFDE66:
	.4byte	.LEFDE66-.LASFDE66
.LASFDE66:
	.4byte	.Lframe0
	.4byte	.LFB33
	.4byte	.LFE33-.LFB33
	.byte	0x4
	.4byte	.LCFI89-.LFB33
	.byte	0xe
	.uleb128 0x4
	.byte	0x8e
	.uleb128 0x1
	.byte	0x4
	.4byte	.LCFI90-.LCFI89
	.byte	0xe
	.uleb128 0x20
	.byte	0x4
	.4byte	.LCFI91-.LCFI90
	.byte	0xe
	.uleb128 0x4
	.align	2
.LEFDE66:
.LSFDE68:
	.4byte	.LEFDE68-.LASFDE68
.LASFDE68:
	.4byte	.Lframe0
	.4byte	.LFB34
	.4byte	.LFE34-.LFB34
	.byte	0x4
	.4byte	.LCFI92-.LFB34
	.byte	0xe
	.uleb128 0x4
	.byte	0x8e
	.uleb128 0x1
	.byte	0x4
	.4byte	.LCFI93-.LCFI92
	.byte	0xe
	.uleb128 0x18
	.byte	0x4
	.4byte	.LCFI94-.LCFI93
	.byte	0xe
	.uleb128 0x4
	.align	2
.LEFDE68:
.LSFDE70:
	.4byte	.LEFDE70-.LASFDE70
.LASFDE70:
	.4byte	.Lframe0
	.4byte	.LFB35
	.4byte	.LFE35-.LFB35
	.byte	0x4
	.4byte	.LCFI95-.LFB35
	.byte	0xe
	.uleb128 0x4
	.byte	0x8e
	.uleb128 0x1
	.byte	0x4
	.4byte	.LCFI96-.LCFI95
	.byte	0xe
	.uleb128 0x18
	.byte	0x4
	.4byte	.LCFI97-.LCFI96
	.byte	0xe
	.uleb128 0x4
	.align	2
.LEFDE70:
.LSFDE72:
	.4byte	.LEFDE72-.LASFDE72
.LASFDE72:
	.4byte	.Lframe0
	.4byte	.LFB36
	.4byte	.LFE36-.LFB36
	.byte	0x4
	.4byte	.LCFI98-.LFB36
	.byte	0xe
	.uleb128 0x8
	.byte	0x84
	.uleb128 0x2
	.byte	0x8e
	.uleb128 0x1
	.byte	0x4
	.4byte	.LCFI99-.LCFI98
	.byte	0xe
	.uleb128 0x40
	.byte	0x4
	.4byte	.LCFI100-.LCFI99
	.byte	0xe
	.uleb128 0x8
	.align	2
.LEFDE72:
.LSFDE74:
	.4byte	.LEFDE74-.LASFDE74
.LASFDE74:
	.4byte	.Lframe0
	.4byte	.LFB37
	.4byte	.LFE37-.LFB37
	.byte	0x4
	.4byte	.LCFI101-.LFB37
	.byte	0xe
	.uleb128 0x4
	.byte	0x8e
	.uleb128 0x1
	.byte	0x4
	.4byte	.LCFI102-.LCFI101
	.byte	0xe
	.uleb128 0x68
	.byte	0x4
	.4byte	.LCFI103-.LCFI102
	.byte	0xe
	.uleb128 0x4
	.align	2
.LEFDE74:
.LSFDE76:
	.4byte	.LEFDE76-.LASFDE76
.LASFDE76:
	.4byte	.Lframe0
	.4byte	.LFB38
	.4byte	.LFE38-.LFB38
	.byte	0x4
	.4byte	.LCFI104-.LFB38
	.byte	0xe
	.uleb128 0x4
	.byte	0x8e
	.uleb128 0x1
	.byte	0x4
	.4byte	.LCFI105-.LCFI104
	.byte	0xe
	.uleb128 0x48
	.byte	0x4
	.4byte	.LCFI106-.LCFI105
	.byte	0xe
	.uleb128 0x4
	.align	2
.LEFDE76:
.LSFDE78:
	.4byte	.LEFDE78-.LASFDE78
.LASFDE78:
	.4byte	.Lframe0
	.4byte	.LFB39
	.4byte	.LFE39-.LFB39
	.byte	0x4
	.4byte	.LCFI107-.LFB39
	.byte	0xe
	.uleb128 0x4
	.byte	0x8e
	.uleb128 0x1
	.byte	0x4
	.4byte	.LCFI108-.LCFI107
	.byte	0xe
	.uleb128 0x28
	.byte	0x4
	.4byte	.LCFI109-.LCFI108
	.byte	0xe
	.uleb128 0x4
	.align	2
.LEFDE78:
.LSFDE80:
	.4byte	.LEFDE80-.LASFDE80
.LASFDE80:
	.4byte	.Lframe0
	.4byte	.LFB40
	.4byte	.LFE40-.LFB40
	.byte	0x4
	.4byte	.LCFI110-.LFB40
	.byte	0xe
	.uleb128 0x4
	.byte	0x8e
	.uleb128 0x1
	.byte	0x4
	.4byte	.LCFI111-.LCFI110
	.byte	0xe
	.uleb128 0x18
	.byte	0x4
	.4byte	.LCFI112-.LCFI111
	.byte	0xe
	.uleb128 0x4
	.align	2
.LEFDE80:
.LSFDE82:
	.4byte	.LEFDE82-.LASFDE82
.LASFDE82:
	.4byte	.Lframe0
	.4byte	.LFB41
	.4byte	.LFE41-.LFB41
	.byte	0x4
	.4byte	.LCFI113-.LFB41
	.byte	0xe
	.uleb128 0x4
	.byte	0x8e
	.uleb128 0x1
	.byte	0x4
	.4byte	.LCFI114-.LCFI113
	.byte	0xe
	.uleb128 0x20
	.byte	0x4
	.4byte	.LCFI115-.LCFI114
	.byte	0xe
	.uleb128 0x4
	.align	2
.LEFDE82:
.LSFDE84:
	.4byte	.LEFDE84-.LASFDE84
.LASFDE84:
	.4byte	.Lframe0
	.4byte	.LFB42
	.4byte	.LFE42-.LFB42
	.byte	0x4
	.4byte	.LCFI116-.LFB42
	.byte	0xe
	.uleb128 0x4
	.byte	0x8e
	.uleb128 0x1
	.byte	0x4
	.4byte	.LCFI117-.LCFI116
	.byte	0xe
	.uleb128 0x40
	.byte	0x4
	.4byte	.LCFI118-.LCFI117
	.byte	0xe
	.uleb128 0x4
	.align	2
.LEFDE84:
.LSFDE86:
	.4byte	.LEFDE86-.LASFDE86
.LASFDE86:
	.4byte	.Lframe0
	.4byte	.LFB43
	.4byte	.LFE43-.LFB43
	.byte	0x4
	.4byte	.LCFI119-.LFB43
	.byte	0xe
	.uleb128 0x4
	.byte	0x8e
	.uleb128 0x1
	.byte	0x4
	.4byte	.LCFI120-.LCFI119
	.byte	0xe
	.uleb128 0x40
	.byte	0x4
	.4byte	.LCFI121-.LCFI120
	.byte	0xe
	.uleb128 0x4
	.align	2
.LEFDE86:
.LSFDE88:
	.4byte	.LEFDE88-.LASFDE88
.LASFDE88:
	.4byte	.Lframe0
	.4byte	.LFB44
	.4byte	.LFE44-.LFB44
	.byte	0x4
	.4byte	.LCFI122-.LFB44
	.byte	0xe
	.uleb128 0x4
	.byte	0x8e
	.uleb128 0x1
	.byte	0x4
	.4byte	.LCFI123-.LCFI122
	.byte	0xe
	.uleb128 0x18
	.byte	0x4
	.4byte	.LCFI124-.LCFI123
	.byte	0xe
	.uleb128 0x4
	.align	2
.LEFDE88:
.LSFDE90:
	.4byte	.LEFDE90-.LASFDE90
.LASFDE90:
	.4byte	.Lframe0
	.4byte	.LFB45
	.4byte	.LFE45-.LFB45
	.byte	0x4
	.4byte	.LCFI125-.LFB45
	.byte	0xe
	.uleb128 0x4
	.byte	0x8e
	.uleb128 0x1
	.byte	0x4
	.4byte	.LCFI126-.LCFI125
	.byte	0xe
	.uleb128 0x60
	.byte	0x4
	.4byte	.LCFI127-.LCFI126
	.byte	0xe
	.uleb128 0x4
	.align	2
.LEFDE90:
.LSFDE92:
	.4byte	.LEFDE92-.LASFDE92
.LASFDE92:
	.4byte	.Lframe0
	.4byte	.LFB46
	.4byte	.LFE46-.LFB46
	.byte	0x4
	.4byte	.LCFI128-.LFB46
	.byte	0xe
	.uleb128 0x4
	.byte	0x8e
	.uleb128 0x1
	.byte	0x4
	.4byte	.LCFI129-.LCFI128
	.byte	0xe
	.uleb128 0x50
	.byte	0x4
	.4byte	.LCFI130-.LCFI129
	.byte	0xe
	.uleb128 0x4
	.align	2
.LEFDE92:
.LSFDE94:
	.4byte	.LEFDE94-.LASFDE94
.LASFDE94:
	.4byte	.Lframe0
	.4byte	.LFB47
	.4byte	.LFE47-.LFB47
	.byte	0x4
	.4byte	.LCFI131-.LFB47
	.byte	0xe
	.uleb128 0x4
	.byte	0x8e
	.uleb128 0x1
	.byte	0x4
	.4byte	.LCFI132-.LCFI131
	.byte	0xe
	.uleb128 0x40
	.byte	0x4
	.4byte	.LCFI133-.LCFI132
	.byte	0xe
	.uleb128 0x4
	.align	2
.LEFDE94:
.LSFDE96:
	.4byte	.LEFDE96-.LASFDE96
.LASFDE96:
	.4byte	.Lframe0
	.4byte	.LFB48
	.4byte	.LFE48-.LFB48
	.byte	0x4
	.4byte	.LCFI134-.LFB48
	.byte	0xe
	.uleb128 0x8
	.byte	0x84
	.uleb128 0x2
	.byte	0x8e
	.uleb128 0x1
	.byte	0x4
	.4byte	.LCFI135-.LCFI134
	.byte	0xe
	.uleb128 0x78
	.byte	0x4
	.4byte	.LCFI136-.LCFI135
	.byte	0xe
	.uleb128 0x8
	.align	2
.LEFDE96:
.LSFDE98:
	.4byte	.LEFDE98-.LASFDE98
.LASFDE98:
	.4byte	.Lframe0
	.4byte	.LFB49
	.4byte	.LFE49-.LFB49
	.byte	0x4
	.4byte	.LCFI137-.LFB49
	.byte	0xe
	.uleb128 0x4
	.byte	0x8e
	.uleb128 0x1
	.byte	0x4
	.4byte	.LCFI138-.LCFI137
	.byte	0xe
	.uleb128 0x40
	.byte	0x4
	.4byte	.LCFI139-.LCFI138
	.byte	0xe
	.uleb128 0x4
	.align	2
.LEFDE98:
.LSFDE100:
	.4byte	.LEFDE100-.LASFDE100
.LASFDE100:
	.4byte	.Lframe0
	.4byte	.LFB50
	.4byte	.LFE50-.LFB50
	.byte	0x4
	.4byte	.LCFI140-.LFB50
	.byte	0xe
	.uleb128 0x4
	.byte	0x8e
	.uleb128 0x1
	.byte	0x4
	.4byte	.LCFI141-.LCFI140
	.byte	0xe
	.uleb128 0x68
	.byte	0x4
	.4byte	.LCFI142-.LCFI141
	.byte	0xe
	.uleb128 0x4
	.align	2
.LEFDE100:
.LSFDE102:
	.4byte	.LEFDE102-.LASFDE102
.LASFDE102:
	.4byte	.Lframe0
	.4byte	.LFB51
	.4byte	.LFE51-.LFB51
	.byte	0x4
	.4byte	.LCFI143-.LFB51
	.byte	0xe
	.uleb128 0x4
	.byte	0x8e
	.uleb128 0x1
	.byte	0x4
	.4byte	.LCFI144-.LCFI143
	.byte	0xe
	.uleb128 0x28
	.byte	0x4
	.4byte	.LCFI145-.LCFI144
	.byte	0xe
	.uleb128 0x4
	.align	2
.LEFDE102:
.LSFDE104:
	.4byte	.LEFDE104-.LASFDE104
.LASFDE104:
	.4byte	.Lframe0
	.4byte	.LFB52
	.4byte	.LFE52-.LFB52
	.byte	0x4
	.4byte	.LCFI146-.LFB52
	.byte	0xe
	.uleb128 0x4
	.byte	0x8e
	.uleb128 0x1
	.byte	0x4
	.4byte	.LCFI147-.LCFI146
	.byte	0xe
	.uleb128 0x18
	.byte	0x4
	.4byte	.LCFI148-.LCFI147
	.byte	0xe
	.uleb128 0x4
	.align	2
.LEFDE104:
.LSFDE106:
	.4byte	.LEFDE106-.LASFDE106
.LASFDE106:
	.4byte	.Lframe0
	.4byte	.LFB53
	.4byte	.LFE53-.LFB53
	.byte	0x4
	.4byte	.LCFI149-.LFB53
	.byte	0xe
	.uleb128 0x8
	.byte	0x84
	.uleb128 0x2
	.byte	0x8e
	.uleb128 0x1
	.byte	0x4
	.4byte	.LCFI150-.LCFI149
	.byte	0xe
	.uleb128 0x60
	.byte	0x4
	.4byte	.LCFI151-.LCFI150
	.byte	0xe
	.uleb128 0x8
	.align	2
.LEFDE106:
.LSFDE108:
	.4byte	.LEFDE108-.LASFDE108
.LASFDE108:
	.4byte	.Lframe0
	.4byte	.LFB54
	.4byte	.LFE54-.LFB54
	.byte	0x4
	.4byte	.LCFI152-.LFB54
	.byte	0xe
	.uleb128 0x8
	.byte	0x84
	.uleb128 0x2
	.byte	0x8e
	.uleb128 0x1
	.byte	0x4
	.4byte	.LCFI153-.LCFI152
	.byte	0xe
	.uleb128 0x60
	.byte	0x4
	.4byte	.LCFI154-.LCFI153
	.byte	0xe
	.uleb128 0x8
	.align	2
.LEFDE108:
.LSFDE110:
	.4byte	.LEFDE110-.LASFDE110
.LASFDE110:
	.4byte	.Lframe0
	.4byte	.LFB55
	.4byte	.LFE55-.LFB55
	.byte	0x4
	.4byte	.LCFI155-.LFB55
	.byte	0xe
	.uleb128 0xc
	.byte	0x81
	.uleb128 0x3
	.byte	0x82
	.uleb128 0x2
	.byte	0x83
	.uleb128 0x1
	.byte	0x4
	.4byte	.LCFI156-.LCFI155
	.byte	0xe
	.uleb128 0x14
	.byte	0x84
	.uleb128 0x5
	.byte	0x8e
	.uleb128 0x4
	.byte	0x4
	.4byte	.LCFI157-.LCFI156
	.byte	0xe
	.uleb128 0xa0
	.byte	0x4
	.4byte	.LCFI158-.LCFI157
	.byte	0xe
	.uleb128 0x14
	.byte	0x4
	.4byte	.LCFI159-.LCFI158
	.byte	0xce
	.byte	0xc4
	.byte	0xe
	.uleb128 0xc
	.byte	0x4
	.4byte	.LCFI160-.LCFI159
	.byte	0xc3
	.byte	0xc2
	.byte	0xc1
	.byte	0xe
	.uleb128 0
	.align	2
.LEFDE110:
	.text
.Letext0:
	.file 2 "/home/tommy/Documents/CrossWorks Projects/Executable_1/Device/Middleware/fatfs/src/integer.h"
	.file 3 "/home/tommy/Documents/CrossWorks Projects/Executable_1/Device/Middleware/fatfs/src/ff.h"
	.file 4 "/usr/share/crossworks_for_arm_4.8/include/stdint.h"
	.file 5 "/home/tommy/Documents/CrossWorks Projects/Executable_1/Device/Middleware/diskio/diskio.h"
	.file 6 "/usr/share/crossworks_for_arm_4.8/include/__crossworks.h"
	.file 7 "/usr/share/crossworks_for_arm_4.8/include/stdarg.h"
	.file 8 "<built-in>"