	.cpu cortex-m7
	.eabi_attribute 28, 1
	.eabi_attribute 20, 1
	.eabi_attribute 21, 1
	.eabi_attribute 23, 3
	.eabi_attribute 24, 1
	.eabi_attribute 25, 1
	.eabi_attribute 26, 1
	.eabi_attribute 30, 6
	.eabi_attribute 34, 1
	.eabi_attribute 18, 4
	.file	"spi_dma.c"
	.text
.Ltext0:
	.section	.text.SPI0_DMA_Init,"ax",%progbits
	.align	1
	.global	SPI0_DMA_Init
	.syntax unified
	.thumb
	.thumb_func
	.fpu fpv5-d16
	.type	SPI0_DMA_Init, %function
SPI0_DMA_Init:
.LFB17700:
	.file 1 "/home/tommy/Documents/CrossWorks Projects/Executable_1/Device/Drivers/SPI/spi_dma.c"
	.loc 1 21 1
	@ args = 0, pretend = 0, frame = 8
	@ frame_needed = 0, uses_anonymous_args = 0
	@ link register save eliminated.
	sub	sp, sp, #8
.LCFI0:
	.loc 1 24 10
	ldr	r3, .L2
	str	r3, [sp, #4]
	.loc 1 34 5
	ldr	r3, [sp, #4]
	ldr	r2, [r3, #184]
	ldr	r3, .L2+4
	orrs	r3, r3, r2
	ldr	r2, [sp, #4]
	str	r3, [r2, #184]
	.loc 1 53 5
	ldr	r3, [sp, #4]
	ldr	r2, [r3, #248]
	ldr	r3, .L2+8
	orrs	r3, r3, r2
	ldr	r2, [sp, #4]
	str	r3, [r2, #248]
	.loc 1 65 48
	ldr	r3, [sp, #4]
	movs	r2, #0
	str	r2, [r3, #172]
	.loc 1 66 48
	ldr	r3, [sp, #4]
	movs	r2, #0
	str	r2, [r3, #236]
	.loc 1 67 48
	ldr	r3, [sp, #4]
	movs	r2, #0
	str	r2, [r3, #180]
	.loc 1 68 48
	ldr	r3, [sp, #4]
	movs	r2, #0
	str	r2, [r3, #244]
	.loc 1 69 48
	ldr	r3, [sp, #4]
	movs	r2, #0
	str	r2, [r3, #188]
	.loc 1 70 48
	ldr	r3, [sp, #4]
	movs	r2, #0
	str	r2, [r3, #252]
	.loc 1 71 48
	ldr	r3, [sp, #4]
	movs	r2, #0
	str	r2, [r3, #192]
	.loc 1 72 48
	ldr	r3, [sp, #4]
	movs	r2, #0
	str	r2, [r3, #256]
	.loc 1 73 48
	ldr	r3, [sp, #4]
	movs	r2, #0
	str	r2, [r3, #196]
	.loc 1 74 48
	ldr	r3, [sp, #4]
	movs	r2, #0
	str	r2, [r3, #260]
	.loc 1 76 9
	nop
	.loc 1 76 42
	ldr	r3, [sp, #4]
	ldr	r3, [r3, #184]
	.loc 1 81 1
	nop
	add	sp, sp, #8
.LCFI1:
	@ sp needed
	bx	lr
.L3:
	.align	2
.L2:
	.word	1074233344
	.word	16859153
	.word	33824769
.LFE17700:
	.size	SPI0_DMA_Init, .-SPI0_DMA_Init
	.section .rodata
	.align	2
.LC0:
	.ascii	"/home/tommy/Documents/CrossWorks Projects/Executabl"
	.ascii	"e_1/Device/Drivers/SPI/spi_dma.c\000"
	.section	.text.SPI0_DMA_InitTransaction,"ax",%progbits
	.align	1
	.syntax unified
	.thumb
	.thumb_func
	.fpu fpv5-d16
	.type	SPI0_DMA_InitTransaction, %function
SPI0_DMA_InitTransaction:
.LFB17701:
	.loc 1 85 1
	@ args = 0, pretend = 0, frame = 32
	@ frame_needed = 0, uses_anonymous_args = 0
	push	{lr}
.LCFI2:
	sub	sp, sp, #36
.LCFI3:
	str	r0, [sp, #12]
	str	r1, [sp, #8]
	str	r2, [sp, #4]
	.loc 1 86 12
	movs	r3, #0
	str	r3, [sp, #28]
	.loc 1 87 10
	ldr	r3, .L10
	str	r3, [sp, #24]
	.loc 1 88 8
	ldr	r3, .L10+4
	str	r3, [sp, #20]
	.loc 1 90 3
	ldr	r3, [sp, #4]
	cmp	r3, #0
	ite	ne
	movne	r3, #1
	moveq	r3, #0
	uxtb	r3, r3
	movs	r2, #90
	ldr	r1, .L10+8
	mov	r0, r3
	bl	assert
	.loc 1 93 3
	ldr	r3, [sp, #24]
	ldr	r3, [r3, #156]
	.loc 1 94 3
	ldr	r3, [sp, #24]
	ldr	r3, [r3, #220]
	.loc 1 97 19
	ldr	r3, [sp, #24]
	movs	r2, #6
	str	r2, [r3, #64]
	.loc 1 98 9
	nop
.L5:
	.loc 1 98 41 discriminator 1
	ldr	r3, [sp, #24]
	ldr	r2, [r3, #156]
	.loc 1 99 41 discriminator 1
	ldr	r3, [sp, #24]
	ldr	r3, [r3, #220]
	.loc 1 98 52 discriminator 1
	ands	r3, r3, r2
	.loc 1 99 52 discriminator 1
	and	r3, r3, #8
	.loc 1 98 9 discriminator 1
	cmp	r3, #0
	bne	.L5
	.loc 1 106 47
	ldr	r2, [sp, #12]
	.loc 1 106 45
	ldr	r3, [sp, #24]
	str	r2, [r3, #160]
	.loc 1 107 47
	ldr	r3, [sp, #20]
	adds	r3, r3, #8
	mov	r2, r3
	.loc 1 107 45
	ldr	r3, [sp, #24]
	str	r2, [r3, #224]
	.loc 1 108 47
	ldr	r3, [sp, #20]
	adds	r3, r3, #12
	mov	r2, r3
	.loc 1 108 45
	ldr	r3, [sp, #24]
	str	r2, [r3, #164]
	.loc 1 109 47
	ldr	r2, [sp, #8]
	.loc 1 109 45
	ldr	r3, [sp, #24]
	str	r2, [r3, #228]
	.loc 1 110 47
	ldr	r3, [sp, #4]
	bic	r2, r3, #-16777216
	.loc 1 110 45
	ldr	r3, [sp, #24]
	str	r2, [r3, #176]
	.loc 1 111 47
	ldr	r3, [sp, #4]
	bic	r2, r3, #-16777216
	.loc 1 111 45
	ldr	r3, [sp, #24]
	str	r2, [r3, #240]
	.loc 1 113 12
	ldr	r3, [sp, #4]
	and	r3, r3, #15
	.loc 1 113 6
	cmp	r3, #0
	bne	.L6
	.loc 1 115 8
	ldr	r3, [sp, #4]
	cmp	r3, #15
	bls	.L7
	.loc 1 117 13
	movs	r3, #6
	str	r3, [sp, #28]
	b	.L7
.L6:
	.loc 1 120 17
	ldr	r3, [sp, #4]
	and	r3, r3, #7
	.loc 1 120 11
	cmp	r3, #0
	bne	.L8
	.loc 1 122 8
	ldr	r3, [sp, #4]
	cmp	r3, #7
	bls	.L7
	.loc 1 124 13
	movs	r3, #4
	str	r3, [sp, #28]
	b	.L7
.L8:
	.loc 1 127 17
	ldr	r3, [sp, #4]
	and	r3, r3, #3
	.loc 1 127 11
	cmp	r3, #0
	bne	.L9
	.loc 1 129 8
	ldr	r3, [sp, #4]
	cmp	r3, #3
	bls	.L7
	.loc 1 131 13
	movs	r3, #2
	str	r3, [sp, #28]
	b	.L7
.L9:
	.loc 1 136 11
	movs	r3, #0
	str	r3, [sp, #28]
.L7:
	.loc 1 139 43
	ldr	r3, [sp, #24]
	ldr	r3, [r3, #184]
	bic	r2, r3, #6
	ldr	r3, [sp, #24]
	str	r2, [r3, #184]
	.loc 1 140 43
	ldr	r3, [sp, #24]
	ldr	r3, [r3, #248]
	bic	r2, r3, #6
	ldr	r3, [sp, #24]
	str	r2, [r3, #248]
	.loc 1 142 43
	ldr	r3, [sp, #24]
	ldr	r2, [r3, #184]
	ldr	r3, [sp, #28]
	orrs	r2, r2, r3
	ldr	r3, [sp, #24]
	str	r2, [r3, #184]
	.loc 1 143 43
	ldr	r3, [sp, #24]
	ldr	r2, [r3, #248]
	ldr	r3, [sp, #28]
	orrs	r2, r2, r3
	ldr	r3, [sp, #24]
	str	r2, [r3, #248]
	.loc 1 144 1
	nop
	add	sp, sp, #36
.LCFI4:
	@ sp needed
	ldr	pc, [sp], #4
.L11:
	.align	2
.L10:
	.word	1074233344
	.word	1073774592
	.word	.LC0
.LFE17701:
	.size	SPI0_DMA_InitTransaction, .-SPI0_DMA_InitTransaction
	.section	.text.SPI0_DMA_TransmitMessage,"ax",%progbits
	.align	1
	.global	SPI0_DMA_TransmitMessage
	.syntax unified
	.thumb
	.thumb_func
	.fpu fpv5-d16
	.type	SPI0_DMA_TransmitMessage, %function
SPI0_DMA_TransmitMessage:
.LFB17702:
	.loc 1 148 1
	@ args = 0, pretend = 0, frame = 96
	@ frame_needed = 0, uses_anonymous_args = 0
	push	{lr}
.LCFI5:
	sub	sp, sp, #108
.LCFI6:
	str	r0, [sp, #20]
	str	r1, [sp, #16]
	str	r2, [sp, #12]
	.loc 1 150 10
	ldr	r3, .L31
	str	r3, [sp, #100]
	.loc 1 151 8
	ldr	r3, .L31+4
	str	r3, [sp, #96]
	.loc 1 154 3
	ldr	r3, [sp, #12]
	ldr	r2, [sp, #20]
	str	r2, [sp, #40]
	str	r3, [sp, #36]
.LBB58:
.LBB59:
	.file 2 "/home/tommy/.rowley_associates_limited/CrossWorks for ARM/v4/packages/CMSIS_5/CMSIS/Core/Include/core_cm7.h"
	.loc 2 2545 8
	ldr	r3, [sp, #36]
	cmp	r3, #0
	ble	.L27
.LBB60:
	.loc 2 2546 36
	ldr	r3, [sp, #40]
	.loc 2 2546 52
	and	r2, r3, #31
	.loc 2 2546 32
	ldr	r3, [sp, #36]
	add	r3, r3, r2
	.loc 2 2546 16
	str	r3, [sp, #32]
	.loc 2 2547 16
	ldr	r3, [sp, #40]
	str	r3, [sp, #28]
.LBB61:
.LBB62:
	.file 3 "/home/tommy/.rowley_associates_limited/CrossWorks for ARM/v4/packages/CMSIS_5/CMSIS/Core/Include/cmsis_gcc.h"
	.loc 3 951 3
	.syntax unified
@ 951 "/home/tommy/.rowley_associates_limited/CrossWorks for ARM/v4/packages/CMSIS_5/CMSIS/Core/Include/cmsis_gcc.h" 1
	dsb 0xF
@ 0 "" 2
	.loc 3 952 1
	.thumb
	.syntax unified
	nop
.L14:
.LBE62:
.LBE61:
	.loc 2 2552 12
	ldr	r2, .L31+8
	.loc 2 2552 22
	ldr	r3, [sp, #28]
	str	r3, [r2, #616]
	.loc 2 2553 17
	ldr	r3, [sp, #28]
	adds	r3, r3, #32
	str	r3, [sp, #28]
	.loc 2 2554 17
	ldr	r3, [sp, #32]
	subs	r3, r3, #32
	str	r3, [sp, #32]
	.loc 2 2555 7
	ldr	r3, [sp, #32]
	cmp	r3, #0
	bgt	.L14
.LBB63:
.LBB64:
	.loc 3 951 3
	.syntax unified
@ 951 "/home/tommy/.rowley_associates_limited/CrossWorks for ARM/v4/packages/CMSIS_5/CMSIS/Core/Include/cmsis_gcc.h" 1
	dsb 0xF
@ 0 "" 2
	.loc 3 952 1
	.thumb
	.syntax unified
	nop
.LBE64:
.LBE63:
.LBB65:
.LBB66:
	.loc 3 940 3
	.syntax unified
@ 940 "/home/tommy/.rowley_associates_limited/CrossWorks for ARM/v4/packages/CMSIS_5/CMSIS/Core/Include/cmsis_gcc.h" 1
	isb 0xF
@ 0 "" 2
	.loc 3 941 1
	.thumb
	.syntax unified
	nop
.L27:
.LBE66:
.LBE65:
.LBE60:
	.loc 2 2561 1
	nop
.LBE59:
.LBE58:
	.loc 1 155 3
	ldr	r3, [sp, #12]
	ldr	r2, [sp, #16]
	str	r2, [sp, #56]
	str	r3, [sp, #52]
.LBB67:
.LBB68:
	.loc 2 2545 8
	ldr	r3, [sp, #52]
	cmp	r3, #0
	ble	.L28
.LBB69:
	.loc 2 2546 36
	ldr	r3, [sp, #56]
	.loc 2 2546 52
	and	r2, r3, #31
	.loc 2 2546 32
	ldr	r3, [sp, #52]
	add	r3, r3, r2
	.loc 2 2546 16
	str	r3, [sp, #48]
	.loc 2 2547 16
	ldr	r3, [sp, #56]
	str	r3, [sp, #44]
.LBB70:
.LBB71:
	.loc 3 951 3
	.syntax unified
@ 951 "/home/tommy/.rowley_associates_limited/CrossWorks for ARM/v4/packages/CMSIS_5/CMSIS/Core/Include/cmsis_gcc.h" 1
	dsb 0xF
@ 0 "" 2
	.loc 3 952 1
	.thumb
	.syntax unified
	nop
.L16:
.LBE71:
.LBE70:
	.loc 2 2552 12
	ldr	r2, .L31+8
	.loc 2 2552 22
	ldr	r3, [sp, #44]
	str	r3, [r2, #616]
	.loc 2 2553 17
	ldr	r3, [sp, #44]
	adds	r3, r3, #32
	str	r3, [sp, #44]
	.loc 2 2554 17
	ldr	r3, [sp, #48]
	subs	r3, r3, #32
	str	r3, [sp, #48]
	.loc 2 2555 7
	ldr	r3, [sp, #48]
	cmp	r3, #0
	bgt	.L16
.LBB72:
.LBB73:
	.loc 3 951 3
	.syntax unified
@ 951 "/home/tommy/.rowley_associates_limited/CrossWorks for ARM/v4/packages/CMSIS_5/CMSIS/Core/Include/cmsis_gcc.h" 1
	dsb 0xF
@ 0 "" 2
	.loc 3 952 1
	.thumb
	.syntax unified
	nop
.LBE73:
.LBE72:
.LBB74:
.LBB75:
	.loc 3 940 3
	.syntax unified
@ 940 "/home/tommy/.rowley_associates_limited/CrossWorks for ARM/v4/packages/CMSIS_5/CMSIS/Core/Include/cmsis_gcc.h" 1
	isb 0xF
@ 0 "" 2
	.loc 3 941 1
	.thumb
	.syntax unified
	nop
.L28:
.LBE75:
.LBE74:
.LBE69:
	.loc 2 2561 1
	nop
.LBE68:
.LBE67:
	.loc 1 157 3
	ldr	r2, [sp, #12]
	ldr	r1, [sp, #16]
	ldr	r0, [sp, #20]
	bl	SPI0_DMA_InitTransaction
	.loc 1 159 48
	ldr	r3, [sp, #100]
	movs	r2, #0
	str	r2, [r3, #172]
	.loc 1 160 48
	ldr	r3, [sp, #100]
	movs	r2, #0
	str	r2, [r3, #180]
	.loc 1 161 48
	ldr	r3, [sp, #100]
	movs	r2, #0
	str	r2, [r3, #188]
	.loc 1 162 48
	ldr	r3, [sp, #100]
	movs	r2, #0
	str	r2, [r3, #192]
	.loc 1 163 48
	ldr	r3, [sp, #100]
	movs	r2, #0
	str	r2, [r3, #196]
	.loc 1 165 48
	ldr	r3, [sp, #100]
	movs	r2, #0
	str	r2, [r3, #236]
	.loc 1 166 48
	ldr	r3, [sp, #100]
	movs	r2, #0
	str	r2, [r3, #244]
	.loc 1 167 48
	ldr	r3, [sp, #100]
	movs	r2, #0
	str	r2, [r3, #252]
	.loc 1 168 48
	ldr	r3, [sp, #100]
	movs	r2, #0
	str	r2, [r3, #256]
	.loc 1 169 48
	ldr	r3, [sp, #100]
	movs	r2, #0
	str	r2, [r3, #260]
.LBB76:
.LBB77:
	.loc 3 962 3
	.syntax unified
@ 962 "/home/tommy/.rowley_associates_limited/CrossWorks for ARM/v4/packages/CMSIS_5/CMSIS/Core/Include/cmsis_gcc.h" 1
	dmb 0xF
@ 0 "" 2
	.loc 3 963 1
	.thumb
	.syntax unified
	nop
.LBE77:
.LBE76:
	.loc 1 174 18
	ldr	r3, [sp, #100]
	movs	r2, #6
	str	r2, [r3, #12]
	.loc 1 175 44
	ldr	r3, [sp, #100]
	movs	r2, #1
	str	r2, [r3, #144]
	.loc 1 176 44
	ldr	r3, [sp, #100]
	movs	r2, #1
	str	r2, [r3, #208]
	.loc 1 179 17
	ldr	r3, [sp, #96]
	ldr	r3, [r3]
	orr	r2, r3, #1
	ldr	r3, [sp, #96]
	str	r2, [r3]
.LBB78:
.LBB79:
	.loc 3 962 3
	.syntax unified
@ 962 "/home/tommy/.rowley_associates_limited/CrossWorks for ARM/v4/packages/CMSIS_5/CMSIS/Core/Include/cmsis_gcc.h" 1
	dmb 0xF
@ 0 "" 2
	.loc 3 963 1
	.thumb
	.syntax unified
	nop
.LBE79:
.LBE78:
	.loc 1 181 18
	ldr	r3, [sp, #100]
	movs	r2, #6
	str	r2, [r3, #28]
	.loc 1 184 13
	ldr	r3, .L31+12
	ldr	r0, [r3]
	movs	r3, #100
	str	r3, [sp]
	movs	r3, #1
	movs	r2, #1
	movs	r1, #6
	bl	xEventGroupWaitBits
	str	r0, [sp, #92]
	.loc 1 192 18
	ldr	r3, [sp, #100]
	movs	r2, #6
	str	r2, [r3, #32]
.LBB80:
.LBB81:
	.loc 3 962 3
	.syntax unified
@ 962 "/home/tommy/.rowley_associates_limited/CrossWorks for ARM/v4/packages/CMSIS_5/CMSIS/Core/Include/cmsis_gcc.h" 1
	dmb 0xF
@ 0 "" 2
	.loc 3 963 1
	.thumb
	.syntax unified
	nop
.LBE81:
.LBE80:
	.loc 1 194 17
	ldr	r3, [sp, #96]
	ldr	r3, [r3]
	orr	r2, r3, #2
	ldr	r3, [sp, #96]
	str	r2, [r3]
	.loc 1 197 44
	ldr	r3, [sp, #100]
	movs	r2, #1
	str	r2, [r3, #148]
	.loc 1 198 44
	ldr	r3, [sp, #100]
	movs	r2, #1
	str	r2, [r3, #212]
	.loc 1 199 18
	ldr	r3, [sp, #100]
	movs	r2, #6
	str	r2, [r3, #16]
	.loc 1 202 3
	ldr	r3, [sp, #12]
	ldr	r2, [sp, #20]
	str	r2, [sp, #72]
	str	r3, [sp, #68]
.LBB82:
.LBB83:
	.loc 2 2515 8
	ldr	r3, [sp, #68]
	cmp	r3, #0
	ble	.L29
.LBB84:
	.loc 2 2516 36
	ldr	r3, [sp, #72]
	.loc 2 2516 52
	and	r2, r3, #31
	.loc 2 2516 32
	ldr	r3, [sp, #68]
	add	r3, r3, r2
	.loc 2 2516 16
	str	r3, [sp, #64]
	.loc 2 2517 16
	ldr	r3, [sp, #72]
	str	r3, [sp, #60]
.LBB85:
.LBB86:
	.loc 3 951 3
	.syntax unified
@ 951 "/home/tommy/.rowley_associates_limited/CrossWorks for ARM/v4/packages/CMSIS_5/CMSIS/Core/Include/cmsis_gcc.h" 1
	dsb 0xF
@ 0 "" 2
	.loc 3 952 1
	.thumb
	.syntax unified
	nop
.L18:
.LBE86:
.LBE85:
	.loc 2 2522 12
	ldr	r2, .L31+8
	.loc 2 2522 22
	ldr	r3, [sp, #60]
	str	r3, [r2, #604]
	.loc 2 2523 17
	ldr	r3, [sp, #60]
	adds	r3, r3, #32
	str	r3, [sp, #60]
	.loc 2 2524 17
	ldr	r3, [sp, #64]
	subs	r3, r3, #32
	str	r3, [sp, #64]
	.loc 2 2525 7
	ldr	r3, [sp, #64]
	cmp	r3, #0
	bgt	.L18
.LBB87:
.LBB88:
	.loc 3 951 3
	.syntax unified
@ 951 "/home/tommy/.rowley_associates_limited/CrossWorks for ARM/v4/packages/CMSIS_5/CMSIS/Core/Include/cmsis_gcc.h" 1
	dsb 0xF
@ 0 "" 2
	.loc 3 952 1
	.thumb
	.syntax unified
	nop
.LBE88:
.LBE87:
.LBB89:
.LBB90:
	.loc 3 940 3
	.syntax unified
@ 940 "/home/tommy/.rowley_associates_limited/CrossWorks for ARM/v4/packages/CMSIS_5/CMSIS/Core/Include/cmsis_gcc.h" 1
	isb 0xF
@ 0 "" 2
	.loc 3 941 1
	.thumb
	.syntax unified
	nop
.L29:
.LBE90:
.LBE89:
.LBE84:
	.loc 2 2531 1
	nop
.LBE83:
.LBE82:
	.loc 1 203 3
	ldr	r3, [sp, #12]
	ldr	r2, [sp, #16]
	str	r2, [sp, #88]
	str	r3, [sp, #84]
.LBB91:
.LBB92:
	.loc 2 2515 8
	ldr	r3, [sp, #84]
	cmp	r3, #0
	ble	.L30
.LBB93:
	.loc 2 2516 36
	ldr	r3, [sp, #88]
	.loc 2 2516 52
	and	r2, r3, #31
	.loc 2 2516 32
	ldr	r3, [sp, #84]
	add	r3, r3, r2
	.loc 2 2516 16
	str	r3, [sp, #80]
	.loc 2 2517 16
	ldr	r3, [sp, #88]
	str	r3, [sp, #76]
.LBB94:
.LBB95:
	.loc 3 951 3
	.syntax unified
@ 951 "/home/tommy/.rowley_associates_limited/CrossWorks for ARM/v4/packages/CMSIS_5/CMSIS/Core/Include/cmsis_gcc.h" 1
	dsb 0xF
@ 0 "" 2
	.loc 3 952 1
	.thumb
	.syntax unified
	nop
.L20:
.LBE95:
.LBE94:
	.loc 2 2522 12
	ldr	r2, .L31+8
	.loc 2 2522 22
	ldr	r3, [sp, #76]
	str	r3, [r2, #604]
	.loc 2 2523 17
	ldr	r3, [sp, #76]
	adds	r3, r3, #32
	str	r3, [sp, #76]
	.loc 2 2524 17
	ldr	r3, [sp, #80]
	subs	r3, r3, #32
	str	r3, [sp, #80]
	.loc 2 2525 7
	ldr	r3, [sp, #80]
	cmp	r3, #0
	bgt	.L20
.LBB96:
.LBB97:
	.loc 3 951 3
	.syntax unified
@ 951 "/home/tommy/.rowley_associates_limited/CrossWorks for ARM/v4/packages/CMSIS_5/CMSIS/Core/Include/cmsis_gcc.h" 1
	dsb 0xF
@ 0 "" 2
	.loc 3 952 1
	.thumb
	.syntax unified
	nop
.LBE97:
.LBE96:
.LBB98:
.LBB99:
	.loc 3 940 3
	.syntax unified
@ 940 "/home/tommy/.rowley_associates_limited/CrossWorks for ARM/v4/packages/CMSIS_5/CMSIS/Core/Include/cmsis_gcc.h" 1
	isb 0xF
@ 0 "" 2
	.loc 3 941 1
	.thumb
	.syntax unified
	nop
.L30:
.LBE99:
.LBE98:
.LBE93:
	.loc 2 2531 1
	nop
.LBE92:
.LBE91:
	.loc 1 206 17
	ldr	r3, [sp, #92]
	and	r3, r3, #2
	.loc 1 206 6
	cmp	r3, #0
	beq	.L21
	.loc 1 207 17
	ldr	r3, [sp, #92]
	and	r3, r3, #4
	.loc 1 207 4
	cmp	r3, #0
	bne	.L22
.L21:
	.loc 1 209 5
	.syntax unified
@ 209 "/home/tommy/Documents/CrossWorks Projects/Executable_1/Device/Drivers/SPI/spi_dma.c" 1
	bkpt 
@ 0 "" 2
	.loc 1 210 5
	.thumb
	.syntax unified
	ldr	r3, .L31+16
	ldr	r0, [r3]
	movs	r3, #0
	str	r3, [sp]
	movs	r3, #1
	movs	r2, #8
	movs	r1, #0
	bl	xTaskGenericNotify
.L22:
	.loc 1 213 3
	ldr	r3, .L31+12
	ldr	r3, [r3]
	movs	r1, #6
	mov	r0, r3
	bl	xEventGroupClearBits
	.loc 1 214 1
	nop
	add	sp, sp, #108
.LCFI7:
	@ sp needed
	ldr	pc, [sp], #4
.L32:
	.align	2
.L31:
	.word	1074233344
	.word	1073774592
	.word	-536810240
	.word	dmaEvent
	.word	xJournalTask
.LFE17702:
	.size	SPI0_DMA_TransmitMessage, .-SPI0_DMA_TransmitMessage
	.section	.debug_frame,"",%progbits
.Lframe0:
	.4byte	.LECIE0-.LSCIE0
.LSCIE0:
	.4byte	0xffffffff
	.byte	0x3
	.ascii	"\000"
	.uleb128 0x1
	.sleb128 -4
	.uleb128 0xe
	.byte	0xc
	.uleb128 0xd
	.uleb128 0
	.align	2
.LECIE0:
.LSFDE0:
	.4byte	.LEFDE0-.LASFDE0
.LASFDE0:
	.4byte	.Lframe0
	.4byte	.LFB17700
	.4byte	.LFE17700-.LFB17700
	.byte	0x4
	.4byte	.LCFI0-.LFB17700
	.byte	0xe
	.uleb128 0x8
	.byte	0x4
	.4byte	.LCFI1-.LCFI0
	.byte	0xe
	.uleb128 0
	.align	2
.LEFDE0:
.LSFDE2:
	.4byte	.LEFDE2-.LASFDE2
.LASFDE2:
	.4byte	.Lframe0
	.4byte	.LFB17701
	.4byte	.LFE17701-.LFB17701
	.byte	0x4
	.4byte	.LCFI2-.LFB17701
	.byte	0xe
	.uleb128 0x4
	.byte	0x8e
	.uleb128 0x1
	.byte	0x4
	.4byte	.LCFI3-.LCFI2
	.byte	0xe
	.uleb128 0x28
	.byte	0x4
	.4byte	.LCFI4-.LCFI3
	.byte	0xe
	.uleb128 0x4
	.align	2
.LEFDE2:
.LSFDE4:
	.4byte	.LEFDE4-.LASFDE4
.LASFDE4:
	.4byte	.Lframe0
	.4byte	.LFB17702
	.4byte	.LFE17702-.LFB17702
	.byte	0x4
	.4byte	.LCFI5-.LFB17702
	.byte	0xe
	.uleb128 0x4
	.byte	0x8e
	.uleb128 0x1
	.byte	0x4
	.4byte	.LCFI6-.LCFI5
	.byte	0xe
	.uleb128 0x70
	.byte	0x4
	.4byte	.LCFI7-.LCFI6
	.byte	0xe
	.uleb128 0x4
	.align	2
.LEFDE4:
	.text
.Letext0:
	.file 4 "/usr/share/crossworks_for_arm_4.8/include/stdint.h"
	.file 5 "/home/tommy/.rowley_associates_limited/CrossWorks for ARM/v4/packages/targets/SAM_E/CMSIS/same70b/include/component/spi.h"
	.file 6 "/home/tommy/.rowley_associates_limited/CrossWorks for ARM/v4/packages/targets/SAM_E/CMSIS/same70b/include/component/xdmac.h"
	.file 7 "/home/tommy/Documents/CrossWorks Projects/Executable_1/FreeRTOS/Source/portable/GCC/ARM_CM7/r0p1/portmacro.h"
	.file 8 "/home/tommy/Documents/CrossWorks Projects/Executable_1/FreeRTOS/Source/include/task.h"
	.file 9 "/home/tommy/Documents/CrossWorks Projects/Executable_1/FreeRTOS/Source/include/event_groups.h"
	.file 10 "/home/tommy/Documents/CrossWorks Projects/Executable_1/Device/Drivers/DMA/dma.h"
	.file 11 "/home/tommy/Documents/CrossWorks Projects/Executable_1/Device/Application/include/logWriter.h"
	.file 12 "/home/tommy/Documents/CrossWorks Projects/Executable_1/Device/Application/include/osConfig.h"